(lp0
(lp1
(lp2
S'4cul5j'
p3
aI28038
aI9
aI0
aI7
aaa(lp4
(lp5
g3
aI28586
aI11
aI0
aI7
aaa(lp6
(lp7
g3
aI29186
aI9
aI0
aI7
aaa(lp8
(lp9
g3
aI29786
aI11
aI0
aI7
aaa(lp10
(lp11
g3
aI30386
aI12
aI0
aI7
aaa(lp12
(lp13
g3
aI30986
aI9
aI0
aI7
aaa(lp14
(lp15
g3
aI31814
aI12
aI0
aI7
aaa(lp16
(lp17
g3
aI32411
aI10
aI0
aI7
aaa(lp18
(lp19
g3
aI33012
aI13
aI0
aI8
aaa(lp20
(lp21
g3
aI33611
aI11
aI0
aI8
aaa(lp22
(lp23
g3
aI34211
aI12
aI0
aI8
aaa(lp24
(lp25
g3
aI34811
aI13
aI0
aI8
aaa(lp26
(lp27
g3
aI35411
aI13
aI0
aI8
aaa(lp28
(lp29
g3
aI36011
aI12
aI0
aI8
aaa(lp30
(lp31
g3
aI36611
aI13
aI0
aI8
aaa(lp32
(lp33
g3
aI37211
aI13
aI0
aI8
aaa(lp34
(lp35
g3
aI37811
aI13
aI0
aI8
aaa(lp36
(lp37
g3
aI40982
aI12
aI0
aI9
aaa(lp38
(lp39
g3
aI41579
aI15
aI0
aI9
aaa(lp40
(lp41
g3
aI42179
aI13
aI0
aI9
aaa(lp42
(lp43
g3
aI42779
aI14
aI0
aI9
aaa(lp44
(lp45
g3
aI43379
aI11
aI0
aI9
aaa(lp46
(lp47
g3
aI43979
aI12
aI0
aI9
aaa(lp48
(lp49
g3
aI44579
aI12
aI0
aI9
aaa(lp50
(lp51
g3
aI45179
aI13
aI0
aI9
aaa(lp52
(lp53
g3
aI45779
aI13
aI0
aI10
aaa(lp54
(lp55
g3
aI46379
aI13
aI0
aI10
aaa(lp56
(lp57
g3
aI46979
aI14
aI0
aI10
aaa(lp58
(lp59
g3
aI47579
aI14
aI0
aI10
aaa(lp60
(lp61
g3
aI48179
aI13
aI0
aI10
aaa(lp62
(lp63
g3
aI48779
aI15
aI0
aI10
aaa(lp64
(lp65
g3
aI49379
aI13
aI0
aI10
aaa(lp66
(lp67
g3
aI49979
aI13
aI0
aI10
aaa(lp68
(lp69
g3
aI50579
aI11
aI0
aI10
aaa(lp70
(lp71
g3
aI51179
aI12
aI0
aI11
aaa(lp72
(lp73
g3
aI51779
aI15
aI0
aI11
aaa(lp74
(lp75
g3
aI52379
aI13
aI0
aI11
aaa(lp76
(lp77
g3
aI52979
aI14
aI0
aI11
aaa(lp78
(lp79
g3
aI53579
aI15
aI0
aI11
aaa(lp80
(lp81
g3
aI54179
aI13
aI0
aI11
aaa(lp82
(lp83
g3
aI54779
aI13
aI0
aI11
aaa(lp84
(lp85
S'4cun1p'
p86
aI26809
aI7
aI0
aI2
aaa(lp87
(lp88
g86
aI27361
aI3
aI0
aI2
aaa(lp89
(lp90
g86
aI27961
aI3
aI0
aI2
aaa(lp91
(lp92
g86
aI28561
aI6
aI0
aI2
aaa(lp93
(lp94
g86
aI29161
aI5
aI0
aI2
aaa(lp95
(lp96
g86
aI29761
aI7
aI0
aI2
aaa(lp97
(lp98
g86
aI30588
aI5
aI0
aI2
aaa(lp99
(lp100
g86
aI31186
aI4
aI0
aI2
aaa(lp101
(lp102
g86
aI31786
aI3
aI0
aI2
aaa(lp103
(lp104
g86
aI32386
aI4
aI0
aI2
aaa(lp105
(lp106
g86
aI32986
aI4
aI0
aI2
aaa(lp107
(lp108
g86
aI33586
aI5
aI0
aI2
aaa(lp109
(lp110
g86
aI34186
aI6
aI0
aI2
aaa(lp111
(lp112
g86
aI34786
aI7
aI0
aI2
aaa(lp113
(lp114
g86
aI35386
aI4
aI0
aI2
aaa(lp115
(lp116
g86
aI35986
aI6
aI0
aI2
aaa(lp117
(lp118
g86
aI36586
aI6
aI0
aI2
aaa(lp119
(lp120
g86
aI39756
aI6
aI0
aI2
aaa(lp121
(lp122
g86
aI40354
aI6
aI0
aI2
aaa(lp123
(lp124
g86
aI40954
aI7
aI0
aI2
aaa(lp125
(lp126
g86
aI41554
aI5
aI0
aI2
aaa(lp127
(lp128
g86
aI42154
aI6
aI0
aI2
aaa(lp129
(lp130
g86
aI42754
aI5
aI0
aI2
aaa(lp131
(lp132
g86
aI43354
aI7
aI0
aI2
aaa(lp133
(lp134
g86
aI43954
aI6
aI0
aI2
aaa(lp135
(lp136
g86
aI44554
aI4
aI0
aI2
aaa(lp137
(lp138
g86
aI45154
aI6
aI0
aI2
aaa(lp139
(lp140
g86
aI45754
aI6
aI0
aI2
aaa(lp141
(lp142
g86
aI46354
aI6
aI0
aI2
aaa(lp143
(lp144
g86
aI46954
aI6
aI0
aI2
aaa(lp145
(lp146
g86
aI47554
aI4
aI0
aI2
aaa(lp147
(lp148
g86
aI48154
aI6
aI0
aI2
aaa(lp149
(lp150
g86
aI48754
aI2
aI0
aI2
aaa(lp151
(lp152
g86
aI49354
aI5
aI0
aI2
aaa(lp153
(lp154
g86
aI49954
aI4
aI0
aI2
aaa(lp155
(lp156
g86
aI50554
aI4
aI0
aI2
aaa(lp157
(lp158
g86
aI51154
aI6
aI0
aI2
aaa(lp159
(lp160
g86
aI51754
aI6
aI0
aI2
aaa(lp161
(lp162
g86
aI52354
aI5
aI0
aI2
aaa(lp163
(lp164
g86
aI52954
aI6
aI0
aI2
aaa(lp165
(lp166
g86
aI53554
aI4
aI0
aI2
aaa(lp167
(lp168
S'4cunb4'
p169
aI26625
aI10
aI0
aI6
aaa(lp170
(lp171
g169
aI27181
aI10
aI0
aI6
aaa(lp172
(lp173
g169
aI27781
aI11
aI0
aI6
aaa(lp174
(lp175
g169
aI28381
aI13
aI0
aI6
aaa(lp176
(lp177
g169
aI28981
aI11
aI0
aI6
aaa(lp178
(lp179
g169
aI29581
aI11
aI0
aI6
aaa(lp180
(lp181
g169
aI30408
aI13
aI0
aI6
aaa(lp182
(lp183
g169
aI31006
aI14
aI0
aI6
aaa(lp184
(lp185
g169
aI31606
aI13
aI0
aI6
aaa(lp186
(lp187
g169
aI32206
aI11
aI0
aI6
aaa(lp188
(lp189
g169
aI32806
aI12
aI0
aI6
aaa(lp190
(lp191
g169
aI33406
aI14
aI0
aI6
aaa(lp192
(lp193
g169
aI34006
aI12
aI0
aI6
aaa(lp194
(lp195
g169
aI34606
aI13
aI0
aI6
aaa(lp196
(lp197
g169
aI35206
aI13
aI0
aI6
aaa(lp198
(lp199
g169
aI35806
aI12
aI0
aI6
aaa(lp200
(lp201
g169
aI36406
aI12
aI0
aI6
aaa(lp202
(lp203
g169
aI39576
aI14
aI0
aI6
aaa(lp204
(lp205
g169
aI40174
aI13
aI0
aI6
aaa(lp206
(lp207
g169
aI40774
aI12
aI0
aI6
aaa(lp208
(lp209
g169
aI41374
aI14
aI0
aI6
aaa(lp210
(lp211
g169
aI41974
aI12
aI0
aI6
aaa(lp212
(lp213
g169
aI42574
aI12
aI0
aI6
aaa(lp214
(lp215
g169
aI43174
aI15
aI0
aI6
aaa(lp216
(lp217
g169
aI43774
aI14
aI0
aI6
aaa(lp218
(lp219
g169
aI44374
aI12
aI0
aI6
aaa(lp220
(lp221
g169
aI44974
aI13
aI0
aI6
aaa(lp222
(lp223
g169
aI45574
aI14
aI0
aI6
aaa(lp224
(lp225
g169
aI46174
aI13
aI0
aI6
aaa(lp226
(lp227
g169
aI46774
aI14
aI0
aI6
aaa(lp228
(lp229
g169
aI47374
aI16
aI0
aI6
aaa(lp230
(lp231
g169
aI47974
aI16
aI0
aI6
aaa(lp232
(lp233
g169
aI48574
aI16
aI0
aI6
aaa(lp234
(lp235
g169
aI49174
aI12
aI0
aI6
aaa(lp236
(lp237
g169
aI49774
aI16
aI0
aI6
aaa(lp238
(lp239
g169
aI50374
aI15
aI0
aI6
aaa(lp240
(lp241
g169
aI50974
aI14
aI0
aI6
aaa(lp242
(lp243
g169
aI51574
aI14
aI0
aI6
aaa(lp244
(lp245
g169
aI52174
aI15
aI0
aI6
aaa(lp246
(lp247
g169
aI52774
aI14
aI0
aI6
aaa(lp248
(lp249
g169
aI53374
aI17
aI0
aI6
aaa(lp250
(lp251
S'4cup19'
p252
aI25560
aI4
aI0
aI2
aaa(lp253
(lp254
g252
aI26120
aI5
aI0
aI2
aaa(lp255
(lp256
g252
aI26192
aI5
aI0
aI2
aaa(lp257
(lp258
g252
aI26720
aI4
aI0
aI2
aaa(lp259
(lp260
g252
aI27320
aI3
aI0
aI2
aaa(lp261
(lp262
g252
aI27920
aI6
aI0
aI2
aaa(lp263
(lp264
g252
aI28520
aI3
aI0
aI2
aaa(lp265
(lp266
g252
aI29347
aI3
aI0
aI2
aaa(lp267
(lp268
g252
aI29945
aI3
aI0
aI2
aaa(lp269
(lp270
g252
aI30545
aI6
aI0
aI2
aaa(lp271
(lp272
g252
aI31145
aI4
aI0
aI2
aaa(lp273
(lp274
g252
aI31745
aI4
aI0
aI2
aaa(lp275
(lp276
g252
aI32345
aI4
aI0
aI2
aaa(lp277
(lp278
g252
aI32945
aI6
aI0
aI2
aaa(lp279
(lp280
g252
aI33550
aI3
aI0
aI3
aaa(lp281
(lp282
g252
aI34145
aI3
aI0
aI3
aaa(lp283
(lp284
g252
aI34745
aI5
aI0
aI3
aaa(lp285
(lp286
g252
aI35345
aI3
aI0
aI3
aaa(lp287
(lp288
g252
aI38515
aI4
aI0
aI3
aaa(lp289
(lp290
g252
aI39113
aI3
aI0
aI3
aaa(lp291
(lp292
g252
aI39713
aI3
aI0
aI3
aaa(lp293
(lp294
g252
aI40313
aI3
aI0
aI3
aaa(lp295
(lp296
g252
aI40913
aI3
aI0
aI3
aaa(lp297
(lp298
g252
aI41513
aI5
aI0
aI3
aaa(lp299
(lp300
g252
aI42113
aI2
aI0
aI3
aaa(lp301
(lp302
g252
aI42713
aI3
aI0
aI3
aaa(lp303
(lp304
g252
aI43313
aI4
aI0
aI3
aaa(lp305
(lp306
g252
aI43913
aI4
aI0
aI3
aaa(lp307
(lp308
g252
aI44513
aI3
aI0
aI3
aaa(lp309
(lp310
g252
aI45113
aI5
aI0
aI3
aaa(lp311
(lp312
g252
aI45713
aI6
aI0
aI3
aaa(lp313
(lp314
g252
aI46313
aI5
aI0
aI3
aaa(lp315
(lp316
g252
aI46913
aI2
aI0
aI3
aaa(lp317
(lp318
g252
aI47513
aI4
aI0
aI3
aaa(lp319
(lp320
g252
aI48113
aI2
aI0
aI3
aaa(lp321
(lp322
g252
aI48713
aI5
aI0
aI3
aaa(lp323
(lp324
g252
aI49313
aI3
aI0
aI3
aaa(lp325
(lp326
g252
aI49913
aI4
aI0
aI3
aaa(lp327
(lp328
g252
aI50513
aI4
aI0
aI3
aaa(lp329
(lp330
g252
aI51113
aI4
aI0
aI3
aaa(lp331
(lp332
g252
aI51713
aI5
aI0
aI3
aaa(lp333
(lp334
g252
aI52313
aI3
aI0
aI3
aaa(lp335
(lp336
S'4cuq07'
p337
aI24906
aI38
aI0
aI19
aaa(lp338
(lp339
g337
aI25470
aI36
aI0
aI23
aaa(lp340
(lp341
g337
aI25538
aI36
aI0
aI23
aaa(lp342
(lp343
g337
aI26070
aI33
aI0
aI25
aaa(lp344
(lp345
g337
aI26670
aI36
aI0
aI25
aaa(lp346
(lp347
g337
aI27270
aI39
aI0
aI27
aaa(lp348
(lp349
g337
aI27870
aI42
aI0
aI28
aaa(lp350
(lp351
g337
aI28697
aI45
aI0
aI28
aaa(lp352
(lp353
g337
aI29295
aI49
aI0
aI28
aaa(lp354
(lp355
g337
aI29895
aI45
aI0
aI28
aaa(lp356
(lp357
g337
aI30495
aI47
aI0
aI29
aaa(lp358
(lp359
g337
aI31095
aI50
aI0
aI29
aaa(lp360
(lp361
g337
aI31695
aI50
aI0
aI29
aaa(lp362
(lp363
g337
aI32295
aI55
aI0
aI29
aaa(lp364
(lp365
g337
aI32899
aI59
aI0
aI30
aaa(lp366
(lp367
g337
aI33495
aI55
aI0
aI32
aaa(lp368
(lp369
g337
aI34095
aI54
aI0
aI32
aaa(lp370
(lp371
g337
aI34695
aI54
aI0
aI32
aaa(lp372
(lp373
g337
aI37865
aI58
aI0
aI35
aaa(lp374
(lp375
g337
aI38463
aI62
aI0
aI36
aaa(lp376
(lp377
g337
aI39063
aI58
aI0
aI39
aaa(lp378
(lp379
g337
aI39663
aI59
aI0
aI40
aaa(lp380
(lp381
g337
aI40263
aI57
aI0
aI40
aaa(lp382
(lp383
g337
aI40863
aI57
aI0
aI40
aaa(lp384
(lp385
g337
aI41463
aI57
aI0
aI41
aaa(lp386
(lp387
g337
aI42063
aI57
aI0
aI42
aaa(lp388
(lp389
g337
aI42663
aI63
aI0
aI42
aaa(lp390
(lp391
g337
aI43263
aI60
aI0
aI44
aaa(lp392
(lp393
g337
aI43863
aI63
aI0
aI44
aaa(lp394
(lp395
g337
aI44463
aI63
aI0
aI44
aaa(lp396
(lp397
g337
aI45063
aI63
aI0
aI44
aaa(lp398
(lp399
g337
aI45663
aI62
aI0
aI44
aaa(lp400
(lp401
g337
aI46263
aI58
aI0
aI44
aaa(lp402
(lp403
g337
aI46863
aI63
aI0
aI44
aaa(lp404
(lp405
g337
aI47463
aI62
aI0
aI44
aaa(lp406
(lp407
g337
aI48063
aI62
aI0
aI44
aaa(lp408
(lp409
g337
aI48663
aI67
aI0
aI45
aaa(lp410
(lp411
g337
aI49263
aI61
aI0
aI47
aaa(lp412
(lp413
g337
aI49863
aI60
aI0
aI48
aaa(lp414
(lp415
g337
aI50463
aI62
aI0
aI48
aaa(lp416
(lp417
g337
aI51063
aI61
aI0
aI48
aaa(lp418
(lp419
g337
aI51663
aI64
aI0
aI48
aaa(lp420
(lp421
S'4cuwje'
p422
aI20702
aI0
aI0
aI13
aaa(lp423
(lp424
g422
aI21270
aI0
aI0
aI14
aaa(lp425
(lp426
g422
aI21334
aI0
aI0
aI14
aaa(lp427
(lp428
g422
aI21870
aI0
aI0
aI14
aaa(lp429
(lp430
g422
aI21942
aI0
aI0
aI14
aaa(lp431
(lp432
g422
aI22470
aI0
aI0
aI14
aaa(lp433
(lp434
g422
aI23070
aI0
aI0
aI14
aaa(lp435
(lp436
g422
aI23670
aI0
aI0
aI14
aaa(lp437
(lp438
g422
aI24497
aI0
aI0
aI15
aaa(lp439
(lp440
g422
aI25095
aI0
aI0
aI15
aaa(lp441
(lp442
g422
aI25695
aI0
aI0
aI15
aaa(lp443
(lp444
g422
aI26295
aI0
aI0
aI15
aaa(lp445
(lp446
g422
aI26895
aI0
aI0
aI15
aaa(lp447
(lp448
g422
aI27495
aI0
aI0
aI15
aaa(lp449
(lp450
g422
aI28095
aI0
aI0
aI15
aaa(lp451
(lp452
g422
aI28699
aI0
aI0
aI15
aaa(lp453
(lp454
g422
aI29295
aI0
aI0
aI15
aaa(lp455
(lp456
g422
aI29895
aI0
aI0
aI15
aaa(lp457
(lp458
g422
aI30495
aI0
aI0
aI15
aaa(lp459
(lp460
g422
aI33665
aI0
aI0
aI15
aaa(lp461
(lp462
g422
aI34263
aI0
aI0
aI15
aaa(lp463
(lp464
g422
aI34863
aI0
aI0
aI15
aaa(lp465
(lp466
g422
aI35463
aI0
aI0
aI15
aaa(lp467
(lp468
g422
aI36063
aI0
aI0
aI15
aaa(lp469
(lp470
g422
aI36663
aI0
aI0
aI15
aaa(lp471
(lp472
g422
aI37263
aI0
aI0
aI15
aaa(lp473
(lp474
g422
aI37863
aI0
aI0
aI15
aaa(lp475
(lp476
g422
aI38463
aI0
aI0
aI15
aaa(lp477
(lp478
g422
aI39063
aI0
aI0
aI15
aaa(lp479
(lp480
g422
aI39663
aI0
aI0
aI15
aaa(lp481
(lp482
g422
aI40263
aI0
aI0
aI15
aaa(lp483
(lp484
g422
aI40863
aI0
aI0
aI15
aaa(lp485
(lp486
g422
aI41463
aI0
aI0
aI15
aaa(lp487
(lp488
g422
aI42063
aI0
aI0
aI15
aaa(lp489
(lp490
g422
aI42663
aI0
aI0
aI15
aaa(lp491
(lp492
g422
aI43263
aI0
aI0
aI15
aaa(lp493
(lp494
g422
aI43863
aI0
aI0
aI15
aaa(lp495
(lp496
g422
aI44464
aI0
aI0
aI15
aaa(lp497
(lp498
g422
aI45063
aI0
aI0
aI15
aaa(lp499
(lp500
g422
aI45663
aI0
aI0
aI15
aaa(lp501
(lp502
g422
aI46263
aI0
aI0
aI15
aaa(lp503
(lp504
g422
aI46863
aI0
aI0
aI15
aaa(lp505
(lp506
g422
aI47463
aI0
aI0
aI15
aaa(lp507
(lp508
S'4cux81'
p509
aI20291
aI59
aI0
aI18
aaa(lp510
(lp511
g509
aI20863
aI59
aI0
aI18
aaa(lp512
(lp513
g509
aI20923
aI59
aI0
aI18
aaa(lp514
(lp515
g509
aI21463
aI62
aI0
aI18
aaa(lp516
(lp517
g509
aI21531
aI62
aI0
aI18
aaa(lp518
(lp519
g509
aI22063
aI59
aI0
aI18
aaa(lp520
(lp521
g509
aI22135
aI59
aI0
aI18
aaa(lp522
(lp523
g509
aI22663
aI65
aI0
aI18
aaa(lp524
(lp525
g509
aI22741
aI65
aI0
aI18
aaa(lp526
(lp527
g509
aI23263
aI66
aI0
aI18
aaa(lp528
(lp529
g509
aI24090
aI67
aI0
aI18
aaa(lp530
(lp531
g509
aI24178
aI67
aI0
aI18
aaa(lp532
(lp533
g509
aI24688
aI68
aI0
aI18
aaa(lp534
(lp535
g509
aI25288
aI67
aI0
aI18
aaa(lp536
(lp537
g509
aI25888
aI76
aI0
aI18
aaa(lp538
(lp539
g509
aI26488
aI76
aI0
aI18
aaa(lp540
(lp541
g509
aI27088
aI78
aI0
aI18
aaa(lp542
(lp543
g509
aI27688
aI74
aI0
aI18
aaa(lp544
(lp545
g509
aI28292
aI76
aI0
aI18
aaa(lp546
(lp547
g509
aI28888
aI79
aI0
aI18
aaa(lp548
(lp549
g509
aI29488
aI81
aI0
aI18
aaa(lp550
(lp551
g509
aI30088
aI86
aI0
aI18
aaa(lp552
(lp553
g509
aI33258
aI91
aI0
aI18
aaa(lp554
(lp555
g509
aI33856
aI89
aI0
aI18
aaa(lp556
(lp557
g509
aI34456
aI88
aI0
aI18
aaa(lp558
(lp559
g509
aI35056
aI91
aI0
aI18
aaa(lp560
(lp561
g509
aI35656
aI94
aI0
aI18
aaa(lp562
(lp563
g509
aI36256
aI97
aI0
aI18
aaa(lp564
(lp565
g509
aI36856
aI97
aI0
aI18
aaa(lp566
(lp567
g509
aI37456
aI94
aI0
aI19
aaa(lp568
(lp569
g509
aI38056
aI94
aI0
aI19
aaa(lp570
(lp571
g509
aI38656
aI99
aI0
aI19
aaa(lp572
(lp573
g509
aI39256
aI100
aI0
aI19
aaa(lp574
(lp575
g509
aI39856
aI98
aI0
aI19
aaa(lp576
(lp577
g509
aI40456
aI96
aI0
aI19
aaa(lp578
(lp579
g509
aI41056
aI101
aI0
aI19
aaa(lp580
(lp581
g509
aI41656
aI100
aI0
aI19
aaa(lp582
(lp583
g509
aI42256
aI102
aI0
aI19
aaa(lp584
(lp585
g509
aI42856
aI98
aI0
aI20
aaa(lp586
(lp587
g509
aI43456
aI102
aI0
aI20
aaa(lp588
(lp589
g509
aI44057
aI101
aI0
aI20
aaa(lp590
(lp591
g509
aI44656
aI101
aI0
aI20
aaa(lp592
(lp593
g509
aI45256
aI104
aI0
aI20
aaa(lp594
(lp595
g509
aI45856
aI101
aI0
aI20
aaa(lp596
(lp597
g509
aI46456
aI103
aI0
aI20
aaa(lp598
(lp599
g509
aI47056
aI99
aI0
aI20
aaa(lp600
(lp601
S'4cv0c3'
p602
aI18445
aI41
aI0
aI14
aaa(lp603
(lp604
g602
aI19021
aI40
aI0
aI14
aaa(lp605
(lp606
g602
aI19077
aI40
aI0
aI14
aaa(lp607
(lp608
g602
aI19621
aI42
aI0
aI14
aaa(lp609
(lp610
g602
aI19685
aI42
aI0
aI14
aaa(lp611
(lp612
g602
aI20221
aI38
aI0
aI14
aaa(lp613
(lp614
g602
aI20289
aI38
aI0
aI14
aaa(lp615
(lp616
g602
aI20821
aI41
aI0
aI14
aaa(lp617
(lp618
g602
aI20895
aI41
aI0
aI14
aaa(lp619
(lp620
g602
aI21421
aI39
aI0
aI14
aaa(lp621
(lp622
g602
aI22248
aI45
aI0
aI14
aaa(lp623
(lp624
g602
aI22332
aI45
aI0
aI14
aaa(lp625
(lp626
g602
aI22846
aI41
aI0
aI15
aaa(lp627
(lp628
g602
aI22934
aI41
aI0
aI15
aaa(lp629
(lp630
g602
aI23446
aI43
aI0
aI16
aaa(lp631
(lp632
g602
aI23534
aI43
aI0
aI16
aaa(lp633
(lp634
g602
aI24046
aI42
aI0
aI16
aaa(lp635
(lp636
g602
aI24646
aI48
aI0
aI17
aaa(lp637
(lp638
g602
aI25246
aI49
aI0
aI18
aaa(lp639
(lp640
g602
aI25846
aI46
aI0
aI18
aaa(lp641
(lp642
g602
aI26450
aI47
aI0
aI18
aaa(lp643
(lp644
g602
aI27046
aI46
aI0
aI20
aaa(lp645
(lp646
g602
aI27646
aI52
aI0
aI20
aaa(lp647
(lp648
g602
aI28246
aI48
aI0
aI20
aaa(lp649
(lp650
g602
aI31416
aI52
aI0
aI24
aaa(lp651
(lp652
g602
aI32014
aI49
aI0
aI24
aaa(lp653
(lp654
g602
aI32614
aI50
aI0
aI24
aaa(lp655
(lp656
g602
aI33214
aI55
aI0
aI24
aaa(lp657
(lp658
g602
aI33814
aI52
aI0
aI24
aaa(lp659
(lp660
g602
aI34414
aI51
aI0
aI24
aaa(lp661
(lp662
g602
aI35014
aI50
aI0
aI24
aaa(lp663
(lp664
g602
aI35614
aI49
aI0
aI24
aaa(lp665
(lp666
g602
aI36214
aI50
aI0
aI24
aaa(lp667
(lp668
g602
aI36814
aI57
aI0
aI24
aaa(lp669
(lp670
g602
aI37414
aI55
aI0
aI24
aaa(lp671
(lp672
g602
aI38014
aI52
aI0
aI24
aaa(lp673
(lp674
g602
aI38614
aI55
aI0
aI24
aaa(lp675
(lp676
g602
aI39214
aI54
aI0
aI24
aaa(lp677
(lp678
g602
aI39814
aI54
aI0
aI25
aaa(lp679
(lp680
g602
aI40414
aI57
aI0
aI25
aaa(lp681
(lp682
g602
aI41014
aI59
aI0
aI25
aaa(lp683
(lp684
g602
aI41614
aI59
aI0
aI25
aaa(lp685
(lp686
g602
aI42216
aI57
aI0
aI25
aaa(lp687
(lp688
g602
aI42814
aI61
aI0
aI25
aaa(lp689
(lp690
g602
aI43414
aI57
aI0
aI25
aaa(lp691
(lp692
g602
aI44014
aI61
aI0
aI25
aaa(lp693
(lp694
g602
aI44614
aI58
aI0
aI25
aaa(lp695
(lp696
g602
aI45214
aI60
aI0
aI25
aaa(lp697
(lp698
S'4cv74m'
p699
aI14616
aI34
aI0
aI4
aaa(lp700
(lp701
g699
aI15196
aI33
aI0
aI5
aaa(lp702
(lp703
g699
aI15248
aI33
aI0
aI5
aaa(lp704
(lp705
g699
aI15796
aI37
aI0
aI5
aaa(lp706
(lp707
g699
aI15856
aI37
aI0
aI5
aaa(lp708
(lp709
g699
aI16396
aI37
aI0
aI5
aaa(lp710
(lp711
g699
aI16460
aI37
aI0
aI5
aaa(lp712
(lp713
g699
aI16996
aI36
aI0
aI5
aaa(lp714
(lp715
g699
aI17066
aI36
aI0
aI5
aaa(lp716
(lp717
g699
aI17596
aI39
aI0
aI5
aaa(lp718
(lp719
g699
aI17674
aI39
aI0
aI5
aaa(lp720
(lp721
g699
aI18423
aI37
aI0
aI5
aaa(lp722
(lp723
g699
aI18503
aI37
aI0
aI5
aaa(lp724
(lp725
g699
aI19021
aI43
aI0
aI5
aaa(lp726
(lp727
g699
aI19105
aI43
aI0
aI5
aaa(lp728
(lp729
g699
aI19621
aI45
aI0
aI6
aaa(lp730
(lp731
g699
aI19705
aI45
aI0
aI6
aaa(lp732
(lp733
g699
aI20221
aI43
aI0
aI6
aaa(lp734
(lp735
g699
aI20309
aI43
aI0
aI6
aaa(lp736
(lp737
g699
aI20821
aI38
aI0
aI6
aaa(lp738
(lp739
g699
aI21421
aI42
aI0
aI6
aaa(lp740
(lp741
g699
aI22021
aI41
aI0
aI6
aaa(lp742
(lp743
g699
aI22625
aI38
aI0
aI6
aaa(lp744
(lp745
g699
aI23221
aI43
aI0
aI6
aaa(lp746
(lp747
g699
aI23821
aI43
aI0
aI6
aaa(lp748
(lp749
g699
aI24421
aI45
aI0
aI6
aaa(lp750
(lp751
g699
aI27591
aI47
aI0
aI6
aaa(lp752
(lp753
g699
aI28189
aI44
aI0
aI6
aaa(lp754
(lp755
g699
aI28789
aI48
aI0
aI6
aaa(lp756
(lp757
g699
aI29389
aI45
aI0
aI6
aaa(lp758
(lp759
g699
aI29989
aI49
aI0
aI6
aaa(lp760
(lp761
g699
aI30589
aI46
aI0
aI6
aaa(lp762
(lp763
g699
aI31189
aI51
aI0
aI6
aaa(lp764
(lp765
g699
aI31789
aI51
aI0
aI6
aaa(lp766
(lp767
g699
aI32389
aI51
aI0
aI6
aaa(lp768
(lp769
g699
aI32989
aI51
aI0
aI6
aaa(lp770
(lp771
g699
aI33589
aI49
aI0
aI6
aaa(lp772
(lp773
g699
aI34189
aI53
aI0
aI6
aaa(lp774
(lp775
g699
aI34789
aI49
aI0
aI6
aaa(lp776
(lp777
g699
aI35389
aI56
aI0
aI6
aaa(lp778
(lp779
g699
aI35989
aI56
aI0
aI7
aaa(lp780
(lp781
g699
aI36589
aI58
aI0
aI7
aaa(lp782
(lp783
g699
aI37189
aI56
aI0
aI7
aaa(lp784
(lp785
g699
aI37789
aI55
aI0
aI7
aaa(lp786
(lp787
g699
aI38391
aI55
aI0
aI7
aaa(lp788
(lp789
g699
aI38989
aI58
aI0
aI7
aaa(lp790
(lp791
g699
aI39589
aI61
aI0
aI7
aaa(lp792
(lp793
g699
aI40189
aI57
aI0
aI7
aaa(lp794
(lp795
g699
aI40789
aI59
aI0
aI7
aaa(lp796
(lp797
g699
aI41389
aI55
aI0
aI7
aaa(lp798
(lp799
S'4cvbjb'
p800
aI12496
aI11
aI0
aI42
aaa(lp801
(lp802
g800
aI13080
aI12
aI0
aI44
aaa(lp803
(lp804
g800
aI13128
aI12
aI0
aI44
aaa(lp805
(lp806
g800
aI13680
aI11
aI0
aI46
aaa(lp807
(lp808
g800
aI13736
aI11
aI0
aI46
aaa(lp809
(lp810
g800
aI14280
aI14
aI0
aI48
aaa(lp811
(lp812
g800
aI14340
aI14
aI0
aI48
aaa(lp813
(lp814
g800
aI14880
aI12
aI0
aI49
aaa(lp815
(lp816
g800
aI14946
aI12
aI0
aI49
aaa(lp817
(lp818
g800
aI15480
aI17
aI0
aI53
aaa(lp819
(lp820
g800
aI15554
aI17
aI0
aI53
aaa(lp821
(lp822
g800
aI16307
aI17
aI0
aI58
aaa(lp823
(lp824
g800
aI16383
aI17
aI0
aI58
aaa(lp825
(lp826
g800
aI16906
aI17
aI0
aI60
aaa(lp827
(lp828
g800
aI16985
aI17
aI0
aI60
aaa(lp829
(lp830
g800
aI17505
aI18
aI0
aI62
aaa(lp831
(lp832
g800
aI17585
aI18
aI0
aI62
aaa(lp833
(lp834
g800
aI18105
aI19
aI0
aI64
aaa(lp835
(lp836
g800
aI18189
aI19
aI0
aI64
aaa(lp837
(lp838
g800
aI18705
aI19
aI0
aI65
aaa(lp839
(lp840
g800
aI19305
aI21
aI0
aI69
aaa(lp841
(lp842
g800
aI19905
aI21
aI0
aI71
aaa(lp843
(lp844
g800
aI20509
aI20
aI0
aI73
aaa(lp845
(lp846
g800
aI21106
aI23
aI0
aI74
aaa(lp847
(lp848
g800
aI21705
aI21
aI0
aI74
aaa(lp849
(lp850
g800
aI22306
aI23
aI0
aI75
aaa(lp851
(lp852
g800
aI25476
aI23
aI0
aI82
aaa(lp853
(lp854
g800
aI26073
aI25
aI0
aI82
aaa(lp855
(lp856
g800
aI26673
aI23
aI0
aI82
aaa(lp857
(lp858
g800
aI27273
aI27
aI0
aI82
aaa(lp859
(lp860
g800
aI27873
aI26
aI0
aI83
aaa(lp861
(lp862
g800
aI28473
aI25
aI0
aI83
aaa(lp863
(lp864
g800
aI29073
aI25
aI0
aI83
aaa(lp865
(lp866
g800
aI29673
aI26
aI0
aI83
aaa(lp867
(lp868
g800
aI30273
aI26
aI0
aI83
aaa(lp869
(lp870
g800
aI30873
aI28
aI0
aI84
aaa(lp871
(lp872
g800
aI31473
aI26
aI0
aI86
aaa(lp873
(lp874
g800
aI32073
aI28
aI0
aI86
aaa(lp875
(lp876
g800
aI32674
aI26
aI0
aI88
aaa(lp877
(lp878
g800
aI33273
aI25
aI0
aI88
aaa(lp879
(lp880
g800
aI33873
aI25
aI0
aI89
aaa(lp881
(lp882
g800
aI34473
aI24
aI0
aI90
aaa(lp883
(lp884
g800
aI35073
aI27
aI0
aI90
aaa(lp885
(lp886
g800
aI35673
aI24
aI0
aI92
aaa(lp887
(lp888
g800
aI36276
aI29
aI0
aI92
aaa(lp889
(lp890
g800
aI36873
aI27
aI0
aI92
aaa(lp891
(lp892
g800
aI37473
aI29
aI0
aI92
aaa(lp893
(lp894
g800
aI38073
aI26
aI0
aI93
aaa(lp895
(lp896
g800
aI38673
aI27
aI0
aI93
aaa(lp897
(lp898
g800
aI39273
aI28
aI0
aI93
aaa(lp899
(lp900
S'4cvckf'
p901
aI12009
aI0
aI0
aI0
aaa(lp902
(lp903
g901
aI12597
aI0
aI0
aI0
aaa(lp904
(lp905
g901
aI12641
aI0
aI0
aI0
aaa(lp906
(lp907
g901
aI13197
aI0
aI0
aI0
aaa(lp908
(lp909
g901
aI13249
aI0
aI0
aI0
aaa(lp910
(lp911
g901
aI13797
aI0
aI0
aI0
aaa(lp912
(lp913
g901
aI13853
aI0
aI0
aI0
aaa(lp914
(lp915
g901
aI14397
aI0
aI0
aI0
aaa(lp916
(lp917
g901
aI14459
aI0
aI0
aI0
aaa(lp918
(lp919
g901
aI14997
aI0
aI0
aI0
aaa(lp920
(lp921
g901
aI15067
aI0
aI0
aI0
aaa(lp922
(lp923
g901
aI15824
aI0
aI0
aI0
aaa(lp924
(lp925
g901
aI15896
aI0
aI0
aI0
aaa(lp926
(lp927
g901
aI16422
aI0
aI0
aI0
aaa(lp928
(lp929
g901
aI16498
aI0
aI0
aI0
aaa(lp930
(lp931
g901
aI17022
aI0
aI0
aI0
aaa(lp932
(lp933
g901
aI17098
aI0
aI0
aI0
aaa(lp934
(lp935
g901
aI17622
aI0
aI0
aI0
aaa(lp936
(lp937
g901
aI17702
aI0
aI0
aI0
aaa(lp938
(lp939
g901
aI18222
aI0
aI0
aI0
aaa(lp940
(lp941
g901
aI18306
aI0
aI0
aI0
aaa(lp942
(lp943
g901
aI18822
aI0
aI0
aI0
aaa(lp944
(lp945
g901
aI18913
aI0
aI0
aI0
aaa(lp946
(lp947
g901
aI19422
aI1
aI0
aI0
aaa(lp948
(lp949
g901
aI20025
aI0
aI0
aI0
aaa(lp950
(lp951
g901
aI20622
aI1
aI0
aI0
aaa(lp952
(lp953
g901
aI21222
aI1
aI0
aI0
aaa(lp954
(lp955
g901
aI21822
aI0
aI0
aI0
aaa(lp956
(lp957
g901
aI24992
aI0
aI0
aI0
aaa(lp958
(lp959
g901
aI25590
aI0
aI0
aI0
aaa(lp960
(lp961
g901
aI26190
aI2
aI0
aI0
aaa(lp962
(lp963
g901
aI26790
aI2
aI0
aI0
aaa(lp964
(lp965
g901
aI27390
aI0
aI0
aI0
aaa(lp966
(lp967
g901
aI27990
aI1
aI0
aI0
aaa(lp968
(lp969
g901
aI28590
aI0
aI0
aI0
aaa(lp970
(lp971
g901
aI29190
aI2
aI0
aI0
aaa(lp972
(lp973
g901
aI29790
aI0
aI0
aI0
aaa(lp974
(lp975
g901
aI30390
aI0
aI0
aI0
aaa(lp976
(lp977
g901
aI30990
aI2
aI0
aI0
aaa(lp978
(lp979
g901
aI31590
aI0
aI0
aI0
aaa(lp980
(lp981
g901
aI32190
aI0
aI0
aI0
aaa(lp982
(lp983
g901
aI32790
aI0
aI0
aI0
aaa(lp984
(lp985
g901
aI33390
aI0
aI0
aI0
aaa(lp986
(lp987
g901
aI33990
aI1
aI0
aI0
aaa(lp988
(lp989
g901
aI34590
aI0
aI0
aI0
aaa(lp990
(lp991
g901
aI35190
aI1
aI0
aI0
aaa(lp992
(lp993
g901
aI35792
aI1
aI0
aI0
aaa(lp994
(lp995
g901
aI36390
aI3
aI0
aI0
aaa(lp996
(lp997
g901
aI36990
aI1
aI0
aI0
aaa(lp998
(lp999
g901
aI37590
aI3
aI0
aI0
aaa(lp1000
(lp1001
g901
aI38190
aI2
aI0
aI0
aaa(lp1002
(lp1003
g901
aI38790
aI2
aI0
aI0
aaa(lp1004
(lp1005
S'4cvf5m'
p1006
aI10961
aI7
aI0
aI0
aaa(lp1007
(lp1008
g1006
aI11553
aI9
aI0
aI0
aaa(lp1009
(lp1010
g1006
aI11593
aI9
aI0
aI0
aaa(lp1011
(lp1012
g1006
aI12153
aI10
aI0
aI0
aaa(lp1013
(lp1014
g1006
aI12201
aI10
aI0
aI0
aaa(lp1015
(lp1016
g1006
aI12753
aI11
aI0
aI0
aaa(lp1017
(lp1018
g1006
aI12805
aI11
aI0
aI0
aaa(lp1019
(lp1020
g1006
aI13353
aI11
aI0
aI0
aaa(lp1021
(lp1022
g1006
aI13411
aI11
aI0
aI0
aaa(lp1023
(lp1024
g1006
aI13953
aI10
aI0
aI0
aaa(lp1025
(lp1026
g1006
aI14019
aI10
aI0
aI0
aaa(lp1027
(lp1028
g1006
aI14780
aI11
aI0
aI1
aaa(lp1029
(lp1030
g1006
aI14848
aI11
aI0
aI1
aaa(lp1031
(lp1032
g1006
aI15378
aI10
aI0
aI1
aaa(lp1033
(lp1034
g1006
aI15450
aI10
aI0
aI1
aaa(lp1035
(lp1036
g1006
aI15978
aI12
aI0
aI2
aaa(lp1037
(lp1038
g1006
aI16050
aI12
aI0
aI2
aaa(lp1039
(lp1040
g1006
aI16578
aI10
aI0
aI2
aaa(lp1041
(lp1042
g1006
aI16654
aI10
aI0
aI2
aaa(lp1043
(lp1044
g1006
aI17178
aI11
aI0
aI2
aaa(lp1045
(lp1046
g1006
aI17258
aI11
aI0
aI2
aaa(lp1047
(lp1048
g1006
aI17778
aI11
aI0
aI2
aaa(lp1049
(lp1050
g1006
aI17865
aI11
aI0
aI2
aaa(lp1051
(lp1052
g1006
aI18378
aI10
aI0
aI2
aaa(lp1053
(lp1054
g1006
aI18982
aI10
aI0
aI3
aaa(lp1055
(lp1056
g1006
aI19578
aI12
aI0
aI3
aaa(lp1057
(lp1058
g1006
aI20178
aI10
aI0
aI3
aaa(lp1059
(lp1060
g1006
aI20778
aI12
aI0
aI3
aaa(lp1061
(lp1062
g1006
aI23948
aI12
aI0
aI3
aaa(lp1063
(lp1064
g1006
aI24546
aI13
aI0
aI3
aaa(lp1065
(lp1066
g1006
aI25146
aI13
aI0
aI3
aaa(lp1067
(lp1068
g1006
aI25746
aI12
aI0
aI3
aaa(lp1069
(lp1070
g1006
aI26346
aI11
aI0
aI3
aaa(lp1071
(lp1072
g1006
aI26946
aI12
aI0
aI3
aaa(lp1073
(lp1074
g1006
aI27546
aI11
aI0
aI3
aaa(lp1075
(lp1076
g1006
aI28146
aI11
aI0
aI3
aaa(lp1077
(lp1078
g1006
aI28746
aI14
aI0
aI3
aaa(lp1079
(lp1080
g1006
aI29346
aI11
aI0
aI3
aaa(lp1081
(lp1082
g1006
aI29946
aI13
aI0
aI3
aaa(lp1083
(lp1084
g1006
aI30546
aI13
aI0
aI3
aaa(lp1085
(lp1086
g1006
aI31146
aI13
aI0
aI3
aaa(lp1087
(lp1088
g1006
aI31746
aI14
aI0
aI3
aaa(lp1089
(lp1090
g1006
aI32346
aI14
aI0
aI3
aaa(lp1091
(lp1092
g1006
aI32946
aI14
aI0
aI3
aaa(lp1093
(lp1094
g1006
aI33546
aI13
aI0
aI3
aaa(lp1095
(lp1096
g1006
aI34146
aI13
aI0
aI3
aaa(lp1097
(lp1098
g1006
aI34748
aI11
aI0
aI3
aaa(lp1099
(lp1100
g1006
aI35346
aI15
aI0
aI3
aaa(lp1101
(lp1102
g1006
aI35946
aI12
aI0
aI3
aaa(lp1103
(lp1104
g1006
aI36546
aI14
aI0
aI3
aaa(lp1105
(lp1106
g1006
aI37146
aI14
aI0
aI3
aaa(lp1107
(lp1108
g1006
aI37746
aI12
aI0
aI3
aaa(lp1109
(lp1110
S'4cvfm5'
p1111
aI10777
aI77
aI0
aI50
aaa(lp1112
(lp1113
g1111
aI11373
aI84
aI0
aI56
aaa(lp1114
(lp1115
g1111
aI11409
aI84
aI0
aI56
aaa(lp1116
(lp1117
g1111
aI11973
aI94
aI0
aI57
aaa(lp1118
(lp1119
g1111
aI12017
aI94
aI0
aI57
aaa(lp1120
(lp1121
g1111
aI12573
aI99
aI0
aI58
aaa(lp1122
(lp1123
g1111
aI12621
aI99
aI0
aI58
aaa(lp1124
(lp1125
g1111
aI13173
aI103
aI0
aI61
aaa(lp1126
(lp1127
g1111
aI13227
aI103
aI0
aI61
aaa(lp1128
(lp1129
g1111
aI13773
aI113
aI0
aI67
aaa(lp1130
(lp1131
g1111
aI13835
aI113
aI0
aI67
aaa(lp1132
(lp1133
g1111
aI14601
aI118
aI0
aI72
aaa(lp1134
(lp1135
g1111
aI14664
aI118
aI0
aI72
aaa(lp1136
(lp1137
g1111
aI15199
aI120
aI0
aI75
aaa(lp1138
(lp1139
g1111
aI15266
aI120
aI0
aI75
aaa(lp1140
(lp1141
g1111
aI15799
aI131
aI0
aI77
aaa(lp1142
(lp1143
g1111
aI15866
aI131
aI0
aI77
aaa(lp1144
(lp1145
g1111
aI16399
aI131
aI0
aI78
aaa(lp1146
(lp1147
g1111
aI16470
aI131
aI0
aI78
aaa(lp1148
(lp1149
g1111
aI16999
aI138
aI0
aI80
aaa(lp1150
(lp1151
g1111
aI17074
aI138
aI0
aI80
aaa(lp1152
(lp1153
g1111
aI17599
aI135
aI0
aI82
aaa(lp1154
(lp1155
g1111
aI17681
aI135
aI0
aI82
aaa(lp1156
(lp1157
g1111
aI18199
aI142
aI0
aI84
aaa(lp1158
(lp1159
g1111
aI18802
aI141
aI0
aI91
aaa(lp1160
(lp1161
g1111
aI19399
aI149
aI0
aI99
aaa(lp1162
(lp1163
g1111
aI19999
aI150
aI0
aI104
aaa(lp1164
(lp1165
g1111
aI20599
aI154
aI0
aI104
aaa(lp1166
(lp1167
g1111
aI23769
aI174
aI0
aI114
aaa(lp1168
(lp1169
g1111
aI24366
aI173
aI0
aI115
aaa(lp1170
(lp1171
g1111
aI24967
aI179
aI0
aI120
aaa(lp1172
(lp1173
g1111
aI25566
aI177
aI0
aI121
aaa(lp1174
(lp1175
g1111
aI26167
aI180
aI0
aI124
aaa(lp1176
(lp1177
g1111
aI26767
aI179
aI0
aI130
aaa(lp1178
(lp1179
g1111
aI27367
aI183
aI0
aI131
aaa(lp1180
(lp1181
g1111
aI27967
aI184
aI0
aI132
aaa(lp1182
(lp1183
g1111
aI28567
aI184
aI0
aI133
aaa(lp1184
(lp1185
g1111
aI29166
aI183
aI0
aI133
aaa(lp1186
(lp1187
g1111
aI29767
aI183
aI0
aI133
aaa(lp1188
(lp1189
g1111
aI30367
aI182
aI0
aI133
aaa(lp1190
(lp1191
g1111
aI30967
aI183
aI0
aI133
aaa(lp1192
(lp1193
g1111
aI31566
aI186
aI0
aI133
aaa(lp1194
(lp1195
g1111
aI32167
aI187
aI0
aI133
aaa(lp1196
(lp1197
g1111
aI32767
aI185
aI0
aI133
aaa(lp1198
(lp1199
g1111
aI33367
aI183
aI0
aI133
aaa(lp1200
(lp1201
g1111
aI33967
aI186
aI0
aI133
aaa(lp1202
(lp1203
g1111
aI34569
aI188
aI0
aI133
aaa(lp1204
(lp1205
g1111
aI35167
aI188
aI0
aI133
aaa(lp1206
(lp1207
g1111
aI35767
aI187
aI0
aI133
aaa(lp1208
(lp1209
g1111
aI36367
aI189
aI0
aI133
aaa(lp1210
(lp1211
g1111
aI36967
aI185
aI0
aI133
aaa(lp1212
(lp1213
g1111
aI37566
aI183
aI0
aI133
aaa(lp1214
(lp1215
S'4cvgoh'
p1216
aI10340
aI261
aI0
aI74
aaa(lp1217
(lp1218
g1216
aI10940
aI271
aI0
aI81
aaa(lp1219
(lp1220
g1216
aI10972
aI271
aI0
aI81
aaa(lp1221
(lp1222
g1216
aI11540
aI293
aI0
aI83
aaa(lp1223
(lp1224
g1216
aI11580
aI293
aI0
aI83
aaa(lp1225
(lp1226
g1216
aI12140
aI306
aI0
aI88
aaa(lp1227
(lp1228
g1216
aI12184
aI306
aI0
aI88
aaa(lp1229
(lp1230
g1216
aI12740
aI309
aI0
aI89
aaa(lp1231
(lp1232
g1216
aI12790
aI309
aI0
aI89
aaa(lp1233
(lp1234
g1216
aI13340
aI325
aI0
aI90
aaa(lp1235
(lp1236
g1216
aI13398
aI325
aI0
aI90
aaa(lp1237
(lp1238
g1216
aI14168
aI332
aI0
aI92
aaa(lp1239
(lp1240
g1216
aI14228
aI332
aI0
aI92
aaa(lp1241
(lp1242
g1216
aI14766
aI349
aI0
aI93
aaa(lp1243
(lp1244
g1216
aI14829
aI349
aI0
aI93
aaa(lp1245
(lp1246
g1216
aI15366
aI350
aI0
aI96
aaa(lp1247
(lp1248
g1216
aI15429
aI350
aI0
aI96
aaa(lp1249
(lp1250
g1216
aI15966
aI361
aI0
aI97
aaa(lp1251
(lp1252
g1216
aI16033
aI361
aI0
aI97
aaa(lp1253
(lp1254
g1216
aI16566
aI373
aI0
aI97
aaa(lp1255
(lp1256
g1216
aI16637
aI373
aI0
aI97
aaa(lp1257
(lp1258
g1216
aI17166
aI383
aI0
aI99
aaa(lp1259
(lp1260
g1216
aI17244
aI383
aI0
aI99
aaa(lp1261
(lp1262
g1216
aI17766
aI397
aI0
aI99
aaa(lp1263
(lp1264
g1216
aI17849
aI397
aI0
aI99
aaa(lp1265
(lp1266
g1216
aI18369
aI396
aI0
aI100
aaa(lp1267
(lp1268
g1216
aI18966
aI406
aI0
aI102
aaa(lp1269
(lp1270
g1216
aI19566
aI414
aI0
aI105
aaa(lp1271
(lp1272
g1216
aI20166
aI423
aI0
aI106
aaa(lp1273
(lp1274
g1216
aI23336
aI469
aI0
aI119
aaa(lp1275
(lp1276
g1216
aI23934
aI475
aI0
aI120
aaa(lp1277
(lp1278
g1216
aI24534
aI484
aI0
aI122
aaa(lp1279
(lp1280
g1216
aI25133
aI480
aI0
aI123
aaa(lp1281
(lp1282
g1216
aI25734
aI491
aI0
aI123
aaa(lp1283
(lp1284
g1216
aI26334
aI492
aI0
aI125
aaa(lp1285
(lp1286
g1216
aI26934
aI499
aI0
aI129
aaa(lp1287
(lp1288
g1216
aI27534
aI500
aI0
aI132
aaa(lp1289
(lp1290
g1216
aI28134
aI503
aI0
aI137
aaa(lp1291
(lp1292
g1216
aI28734
aI513
aI0
aI141
aaa(lp1293
(lp1294
g1216
aI29334
aI512
aI0
aI142
aaa(lp1295
(lp1296
g1216
aI29934
aI514
aI0
aI143
aaa(lp1297
(lp1298
g1216
aI30534
aI523
aI0
aI143
aaa(lp1299
(lp1300
g1216
aI31134
aI521
aI0
aI143
aaa(lp1301
(lp1302
g1216
aI31734
aI522
aI0
aI144
aaa(lp1303
(lp1304
g1216
aI32334
aI526
aI0
aI146
aaa(lp1305
(lp1306
g1216
aI32934
aI527
aI0
aI147
aaa(lp1307
(lp1308
g1216
aI33534
aI536
aI0
aI148
aaa(lp1309
(lp1310
g1216
aI34137
aI536
aI0
aI148
aaa(lp1311
(lp1312
g1216
aI34734
aI537
aI0
aI148
aaa(lp1313
(lp1314
g1216
aI35334
aI535
aI0
aI148
aaa(lp1315
(lp1316
g1216
aI35934
aI544
aI0
aI150
aaa(lp1317
(lp1318
g1216
aI36534
aI546
aI0
aI150
aaa(lp1319
(lp1320
g1216
aI37134
aI548
aI0
aI151
aaa(lp1321
(lp1322
S'4cvku6'
p1323
aI8696
aI0
aI0
aI2
aaa(lp1324
(lp1325
g1323
aI9300
aI0
aI0
aI2
aaa(lp1326
(lp1327
g1323
aI9328
aI0
aI0
aI2
aaa(lp1328
(lp1329
g1323
aI9900
aI0
aI0
aI2
aaa(lp1330
(lp1331
g1323
aI9936
aI0
aI0
aI2
aaa(lp1332
(lp1333
g1323
aI10500
aI0
aI0
aI2
aaa(lp1334
(lp1335
g1323
aI10540
aI0
aI0
aI2
aaa(lp1336
(lp1337
g1323
aI11100
aI0
aI0
aI2
aaa(lp1338
(lp1339
g1323
aI11700
aI0
aI0
aI2
aaa(lp1340
(lp1341
g1323
aI12527
aI0
aI0
aI2
aaa(lp1342
(lp1343
g1323
aI13125
aI0
aI0
aI2
aaa(lp1344
(lp1345
g1323
aI13725
aI0
aI0
aI2
aaa(lp1346
(lp1347
g1323
aI14325
aI0
aI0
aI2
aaa(lp1348
(lp1349
g1323
aI14925
aI0
aI0
aI2
aaa(lp1350
(lp1351
g1323
aI15525
aI0
aI0
aI2
aaa(lp1352
(lp1353
g1323
aI16125
aI0
aI0
aI2
aaa(lp1354
(lp1355
g1323
aI16729
aI0
aI0
aI2
aaa(lp1356
(lp1357
g1323
aI17325
aI0
aI0
aI2
aaa(lp1358
(lp1359
g1323
aI17925
aI0
aI0
aI2
aaa(lp1360
(lp1361
g1323
aI18525
aI0
aI0
aI2
aaa(lp1362
(lp1363
g1323
aI21695
aI0
aI0
aI2
aaa(lp1364
(lp1365
g1323
aI22293
aI0
aI0
aI2
aaa(lp1366
(lp1367
g1323
aI22893
aI0
aI0
aI2
aaa(lp1368
(lp1369
g1323
aI23493
aI0
aI0
aI2
aaa(lp1370
(lp1371
g1323
aI24093
aI0
aI0
aI2
aaa(lp1372
(lp1373
g1323
aI24693
aI0
aI0
aI2
aaa(lp1374
(lp1375
g1323
aI25293
aI0
aI0
aI2
aaa(lp1376
(lp1377
g1323
aI25893
aI0
aI0
aI2
aaa(lp1378
(lp1379
g1323
aI26493
aI0
aI0
aI2
aaa(lp1380
(lp1381
g1323
aI27093
aI0
aI0
aI2
aaa(lp1382
(lp1383
g1323
aI27693
aI0
aI0
aI2
aaa(lp1384
(lp1385
g1323
aI28293
aI0
aI0
aI2
aaa(lp1386
(lp1387
g1323
aI28893
aI0
aI0
aI2
aaa(lp1388
(lp1389
g1323
aI29493
aI0
aI0
aI2
aaa(lp1390
(lp1391
g1323
aI30093
aI0
aI0
aI2
aaa(lp1392
(lp1393
g1323
aI30693
aI0
aI0
aI2
aaa(lp1394
(lp1395
g1323
aI31293
aI0
aI0
aI2
aaa(lp1396
(lp1397
g1323
aI31893
aI0
aI0
aI2
aaa(lp1398
(lp1399
g1323
aI32497
aI0
aI0
aI2
aaa(lp1400
(lp1401
g1323
aI33093
aI0
aI0
aI2
aaa(lp1402
(lp1403
g1323
aI33693
aI0
aI0
aI2
aaa(lp1404
(lp1405
g1323
aI34293
aI0
aI0
aI2
aaa(lp1406
(lp1407
g1323
aI34893
aI0
aI0
aI2
aaa(lp1408
(lp1409
g1323
aI35493
aI0
aI0
aI2
aaa(lp1410
(lp1411
S'4cvrsq'
p1412
aI6131
aI41
aI0
aI16
aaa(lp1413
(lp1414
g1412
aI6739
aI43
aI0
aI16
aaa(lp1415
(lp1416
g1412
aI6765
aI43
aI0
aI16
aaa(lp1417
(lp1418
g1412
aI7339
aI49
aI0
aI18
aaa(lp1419
(lp1420
g1412
aI7371
aI49
aI0
aI18
aaa(lp1421
(lp1422
g1412
aI7939
aI51
aI0
aI18
aaa(lp1423
(lp1424
g1412
aI7975
aI51
aI0
aI18
aaa(lp1425
(lp1426
g1412
aI8539
aI55
aI0
aI20
aaa(lp1427
(lp1428
g1412
aI8583
aI55
aI0
aI20
aaa(lp1429
(lp1430
g1412
aI9139
aI63
aI0
aI22
aaa(lp1431
(lp1432
g1412
aI9191
aI63
aI0
aI22
aaa(lp1433
(lp1434
g1412
aI9966
aI70
aI0
aI23
aaa(lp1435
(lp1436
g1412
aI10020
aI70
aI0
aI23
aaa(lp1437
(lp1438
g1412
aI10564
aI76
aI0
aI25
aaa(lp1439
(lp1440
g1412
aI10622
aI76
aI0
aI25
aaa(lp1441
(lp1442
g1412
aI11164
aI76
aI0
aI26
aaa(lp1443
(lp1444
g1412
aI11222
aI76
aI0
aI26
aaa(lp1445
(lp1446
g1412
aI11764
aI84
aI0
aI28
aaa(lp1447
(lp1448
g1412
aI11826
aI84
aI0
aI28
aaa(lp1449
(lp1450
g1412
aI12364
aI82
aI0
aI28
aaa(lp1451
(lp1452
g1412
aI12430
aI82
aI0
aI28
aaa(lp1453
(lp1454
g1412
aI12964
aI91
aI0
aI29
aaa(lp1455
(lp1456
g1412
aI13037
aI91
aI0
aI29
aaa(lp1457
(lp1458
g1412
aI13564
aI94
aI0
aI30
aaa(lp1459
(lp1460
g1412
aI13642
aI94
aI0
aI30
aaa(lp1461
(lp1462
g1412
aI14168
aI99
aI0
aI31
aaa(lp1463
(lp1464
g1412
aI14764
aI104
aI0
aI32
aaa(lp1465
(lp1466
g1412
aI15364
aI103
aI0
aI32
aaa(lp1467
(lp1468
g1412
aI15964
aI110
aI0
aI33
aaa(lp1469
(lp1470
g1412
aI19135
aI136
aI0
aI43
aaa(lp1471
(lp1472
g1412
aI19732
aI135
aI0
aI46
aaa(lp1473
(lp1474
g1412
aI20332
aI139
aI0
aI49
aaa(lp1475
(lp1476
g1412
aI20932
aI143
aI0
aI49
aaa(lp1477
(lp1478
g1412
aI21532
aI149
aI0
aI50
aaa(lp1479
(lp1480
g1412
aI22132
aI153
aI0
aI51
aaa(lp1481
(lp1482
g1412
aI22732
aI152
aI0
aI51
aaa(lp1483
(lp1484
g1412
aI23332
aI153
aI0
aI51
aaa(lp1485
(lp1486
g1412
aI23932
aI149
aI0
aI53
aaa(lp1487
(lp1488
g1412
aI24532
aI149
aI0
aI53
aaa(lp1489
(lp1490
g1412
aI25132
aI153
aI0
aI53
aaa(lp1491
(lp1492
g1412
aI25732
aI153
aI0
aI53
aaa(lp1493
(lp1494
g1412
aI26332
aI154
aI0
aI53
aaa(lp1495
(lp1496
g1412
aI26932
aI155
aI0
aI53
aaa(lp1497
(lp1498
g1412
aI27532
aI153
aI0
aI53
aaa(lp1499
(lp1500
g1412
aI28132
aI149
aI0
aI53
aaa(lp1501
(lp1502
g1412
aI28732
aI155
aI0
aI53
aaa(lp1503
(lp1504
g1412
aI29332
aI155
aI0
aI53
aaa(lp1505
(lp1506
g1412
aI29937
aI150
aI0
aI53
aaa(lp1507
(lp1508
g1412
aI30532
aI149
aI0
aI53
aaa(lp1509
(lp1510
g1412
aI31132
aI154
aI0
aI53
aaa(lp1511
(lp1512
g1412
aI31732
aI155
aI0
aI53
aaa(lp1513
(lp1514
g1412
aI32332
aI151
aI0
aI53
aaa(lp1515
(lp1516
g1412
aI32932
aI151
aI0
aI53
aaa(lp1517
(lp1518
S'4cvs72'
p1519
aI5979
aI0
aI0
aI0
aaa(lp1520
(lp1521
g1519
aI6591
aI0
aI0
aI0
aaa(lp1522
(lp1523
g1519
aI6615
aI0
aI0
aI0
aaa(lp1524
(lp1525
g1519
aI7191
aI0
aI0
aI0
aaa(lp1526
(lp1527
g1519
aI7219
aI0
aI0
aI0
aaa(lp1528
(lp1529
g1519
aI7791
aI0
aI0
aI0
aaa(lp1530
(lp1531
g1519
aI7823
aI0
aI0
aI0
aaa(lp1532
(lp1533
g1519
aI8391
aI0
aI0
aI0
aaa(lp1534
(lp1535
g1519
aI8431
aI0
aI0
aI0
aaa(lp1536
(lp1537
g1519
aI8991
aI0
aI0
aI0
aaa(lp1538
(lp1539
g1519
aI9039
aI0
aI0
aI0
aaa(lp1540
(lp1541
g1519
aI9818
aI1
aI0
aI0
aaa(lp1542
(lp1543
g1519
aI9868
aI1
aI0
aI0
aaa(lp1544
(lp1545
g1519
aI10416
aI0
aI0
aI0
aaa(lp1546
(lp1547
g1519
aI10470
aI0
aI0
aI0
aaa(lp1548
(lp1549
g1519
aI11016
aI1
aI0
aI0
aaa(lp1550
(lp1551
g1519
aI11070
aI1
aI0
aI0
aaa(lp1552
(lp1553
g1519
aI11616
aI0
aI0
aI1
aaa(lp1554
(lp1555
g1519
aI11674
aI0
aI0
aI1
aaa(lp1556
(lp1557
g1519
aI12216
aI0
aI0
aI1
aaa(lp1558
(lp1559
g1519
aI12278
aI0
aI0
aI1
aaa(lp1560
(lp1561
g1519
aI12816
aI2
aI0
aI1
aaa(lp1562
(lp1563
g1519
aI12885
aI2
aI0
aI1
aaa(lp1564
(lp1565
g1519
aI13416
aI0
aI0
aI1
aaa(lp1566
(lp1567
g1519
aI13490
aI0
aI0
aI1
aaa(lp1568
(lp1569
g1519
aI14020
aI2
aI0
aI1
aaa(lp1570
(lp1571
g1519
aI14616
aI0
aI0
aI1
aaa(lp1572
(lp1573
g1519
aI15216
aI1
aI0
aI1
aaa(lp1574
(lp1575
g1519
aI15816
aI2
aI0
aI1
aaa(lp1576
(lp1577
g1519
aI18986
aI0
aI0
aI1
aaa(lp1578
(lp1579
g1519
aI19584
aI0
aI0
aI1
aaa(lp1580
(lp1581
g1519
aI20184
aI2
aI0
aI1
aaa(lp1582
(lp1583
g1519
aI20784
aI1
aI0
aI1
aaa(lp1584
(lp1585
g1519
aI21384
aI1
aI0
aI1
aaa(lp1586
(lp1587
g1519
aI21984
aI1
aI0
aI1
aaa(lp1588
(lp1589
g1519
aI22584
aI1
aI0
aI1
aaa(lp1590
(lp1591
g1519
aI23184
aI1
aI0
aI1
aaa(lp1592
(lp1593
g1519
aI23784
aI0
aI0
aI1
aaa(lp1594
(lp1595
g1519
aI24384
aI0
aI0
aI1
aaa(lp1596
(lp1597
g1519
aI24984
aI0
aI0
aI1
aaa(lp1598
(lp1599
g1519
aI25584
aI1
aI0
aI1
aaa(lp1600
(lp1601
g1519
aI26184
aI0
aI0
aI1
aaa(lp1602
(lp1603
g1519
aI26784
aI2
aI0
aI1
aaa(lp1604
(lp1605
g1519
aI27384
aI1
aI0
aI1
aaa(lp1606
(lp1607
g1519
aI27984
aI0
aI0
aI1
aaa(lp1608
(lp1609
g1519
aI28584
aI0
aI0
aI1
aaa(lp1610
(lp1611
g1519
aI29184
aI0
aI0
aI1
aaa(lp1612
(lp1613
g1519
aI29789
aI0
aI0
aI1
aaa(lp1614
(lp1615
g1519
aI30384
aI1
aI0
aI1
aaa(lp1616
(lp1617
g1519
aI30984
aI2
aI0
aI1
aaa(lp1618
(lp1619
g1519
aI31584
aI0
aI0
aI1
aaa(lp1620
(lp1621
g1519
aI32184
aI2
aI0
aI1
aaa(lp1622
(lp1623
g1519
aI32784
aI0
aI0
aI1
aaa(lp1624
(lp1625
S'4cvuxb'
p1626
aI4989
aI22
aI0
aI11
aaa(lp1627
(lp1628
g1626
aI5605
aI21
aI0
aI13
aaa(lp1629
(lp1630
g1626
aI5627
aI21
aI0
aI13
aaa(lp1631
(lp1632
g1626
aI6205
aI30
aI0
aI15
aaa(lp1633
(lp1634
g1626
aI6231
aI30
aI0
aI15
aaa(lp1635
(lp1636
g1626
aI6805
aI31
aI0
aI17
aaa(lp1637
(lp1638
g1626
aI6833
aI31
aI0
aI17
aaa(lp1639
(lp1640
g1626
aI7405
aI34
aI0
aI19
aaa(lp1641
(lp1642
g1626
aI7441
aI34
aI0
aI19
aaa(lp1643
(lp1644
g1626
aI8005
aI36
aI0
aI23
aaa(lp1645
(lp1646
g1626
aI8049
aI36
aI0
aI23
aaa(lp1647
(lp1648
g1626
aI8832
aI44
aI0
aI26
aaa(lp1649
(lp1650
g1626
aI8878
aI44
aI0
aI26
aaa(lp1651
(lp1652
g1626
aI9430
aI45
aI0
aI29
aaa(lp1653
(lp1654
g1626
aI9480
aI45
aI0
aI29
aaa(lp1655
(lp1656
g1626
aI10030
aI45
aI0
aI31
aaa(lp1657
(lp1658
g1626
aI10080
aI45
aI0
aI31
aaa(lp1659
(lp1660
g1626
aI10631
aI52
aI0
aI33
aaa(lp1661
(lp1662
g1626
aI10684
aI52
aI0
aI33
aaa(lp1663
(lp1664
g1626
aI11230
aI50
aI0
aI35
aaa(lp1665
(lp1666
g1626
aI11288
aI50
aI0
aI35
aaa(lp1667
(lp1668
g1626
aI11830
aI56
aI0
aI37
aaa(lp1669
(lp1670
g1626
aI11895
aI56
aI0
aI37
aaa(lp1671
(lp1672
g1626
aI12430
aI56
aI0
aI39
aaa(lp1673
(lp1674
g1626
aI12500
aI56
aI0
aI39
aaa(lp1675
(lp1676
g1626
aI13034
aI61
aI0
aI41
aaa(lp1677
(lp1678
g1626
aI13117
aI61
aI0
aI41
aaa(lp1679
(lp1680
g1626
aI13630
aI64
aI0
aI43
aaa(lp1681
(lp1682
g1626
aI13716
aI64
aI0
aI43
aaa(lp1683
(lp1684
g1626
aI14230
aI68
aI0
aI44
aaa(lp1685
(lp1686
g1626
aI14318
aI68
aI0
aI44
aaa(lp1687
(lp1688
g1626
aI14830
aI70
aI0
aI46
aaa(lp1689
(lp1690
g1626
aI14918
aI70
aI0
aI46
aaa(lp1691
(lp1692
g1626
aI18001
aI80
aI0
aI53
aaa(lp1693
(lp1694
g1626
aI18598
aI83
aI0
aI55
aaa(lp1695
(lp1696
g1626
aI19198
aI82
aI0
aI55
aaa(lp1697
(lp1698
g1626
aI19798
aI83
aI0
aI59
aaa(lp1699
(lp1700
g1626
aI20398
aI90
aI0
aI60
aaa(lp1701
(lp1702
g1626
aI20998
aI91
aI0
aI61
aaa(lp1703
(lp1704
g1626
aI21598
aI91
aI0
aI61
aaa(lp1705
(lp1706
g1626
aI22198
aI94
aI0
aI62
aaa(lp1707
(lp1708
g1626
aI22798
aI95
aI0
aI63
aaa(lp1709
(lp1710
g1626
aI23398
aI99
aI0
aI63
aaa(lp1711
(lp1712
g1626
aI23998
aI100
aI0
aI63
aaa(lp1713
(lp1714
g1626
aI24598
aI101
aI0
aI63
aaa(lp1715
(lp1716
g1626
aI25198
aI100
aI0
aI64
aaa(lp1717
(lp1718
g1626
aI25798
aI100
aI0
aI65
aaa(lp1719
(lp1720
g1626
aI26398
aI103
aI0
aI67
aaa(lp1721
(lp1722
g1626
aI26998
aI105
aI0
aI67
aaa(lp1723
(lp1724
g1626
aI27598
aI109
aI0
aI67
aaa(lp1725
(lp1726
g1626
aI28198
aI113
aI0
aI67
aaa(lp1727
(lp1728
g1626
aI28803
aI110
aI0
aI68
aaa(lp1729
(lp1730
g1626
aI29398
aI112
aI0
aI68
aaa(lp1731
(lp1732
g1626
aI29998
aI114
aI0
aI68
aaa(lp1733
(lp1734
g1626
aI30598
aI116
aI0
aI68
aaa(lp1735
(lp1736
g1626
aI31198
aI115
aI0
aI68
aaa(lp1737
(lp1738
g1626
aI31798
aI118
aI0
aI68
aaa(lp1739
(lp1740
S'4cvv22'
p1741
aI4937
aI0
aI0
aI13
aaa(lp1742
(lp1743
g1741
aI5557
aI0
aI0
aI14
aaa(lp1744
(lp1745
g1741
aI5577
aI0
aI0
aI14
aaa(lp1746
(lp1747
g1741
aI6157
aI0
aI0
aI14
aaa(lp1748
(lp1749
g1741
aI6181
aI0
aI0
aI14
aaa(lp1750
(lp1751
g1741
aI6757
aI0
aI0
aI14
aaa(lp1752
(lp1753
g1741
aI6783
aI0
aI0
aI14
aaa(lp1754
(lp1755
g1741
aI7357
aI0
aI0
aI14
aaa(lp1756
(lp1757
g1741
aI7389
aI0
aI0
aI14
aaa(lp1758
(lp1759
g1741
aI7957
aI0
aI0
aI14
aaa(lp1760
(lp1761
g1741
aI7997
aI0
aI0
aI14
aaa(lp1762
(lp1763
g1741
aI8784
aI0
aI0
aI16
aaa(lp1764
(lp1765
g1741
aI8826
aI0
aI0
aI16
aaa(lp1766
(lp1767
g1741
aI9382
aI0
aI0
aI16
aaa(lp1768
(lp1769
g1741
aI9428
aI0
aI0
aI16
aaa(lp1770
(lp1771
g1741
aI9982
aI0
aI0
aI16
aaa(lp1772
(lp1773
g1741
aI10028
aI0
aI0
aI16
aaa(lp1774
(lp1775
g1741
aI10582
aI0
aI0
aI16
aaa(lp1776
(lp1777
g1741
aI10632
aI0
aI0
aI16
aaa(lp1778
(lp1779
g1741
aI11182
aI0
aI0
aI17
aaa(lp1780
(lp1781
g1741
aI11236
aI0
aI0
aI17
aaa(lp1782
(lp1783
g1741
aI11782
aI0
aI0
aI17
aaa(lp1784
(lp1785
g1741
aI11843
aI0
aI0
aI17
aaa(lp1786
(lp1787
g1741
aI12382
aI0
aI0
aI17
aaa(lp1788
(lp1789
g1741
aI12448
aI0
aI0
aI17
aaa(lp1790
(lp1791
g1741
aI12986
aI0
aI0
aI17
aaa(lp1792
(lp1793
g1741
aI13066
aI0
aI0
aI17
aaa(lp1794
(lp1795
g1741
aI13582
aI0
aI0
aI17
aaa(lp1796
(lp1797
g1741
aI13664
aI0
aI0
aI17
aaa(lp1798
(lp1799
g1741
aI14182
aI0
aI0
aI17
aaa(lp1800
(lp1801
g1741
aI14266
aI0
aI0
aI17
aaa(lp1802
(lp1803
g1741
aI14782
aI0
aI0
aI17
aaa(lp1804
(lp1805
g1741
aI14866
aI0
aI0
aI17
aaa(lp1806
(lp1807
g1741
aI17952
aI0
aI0
aI17
aaa(lp1808
(lp1809
g1741
aI18550
aI0
aI0
aI18
aaa(lp1810
(lp1811
g1741
aI19150
aI0
aI0
aI18
aaa(lp1812
(lp1813
g1741
aI19750
aI0
aI0
aI18
aaa(lp1814
(lp1815
g1741
aI20350
aI0
aI0
aI18
aaa(lp1816
(lp1817
g1741
aI20950
aI0
aI0
aI19
aaa(lp1818
(lp1819
g1741
aI21550
aI0
aI0
aI19
aaa(lp1820
(lp1821
g1741
aI22150
aI0
aI0
aI19
aaa(lp1822
(lp1823
g1741
aI22750
aI0
aI0
aI21
aaa(lp1824
(lp1825
g1741
aI23350
aI0
aI0
aI21
aaa(lp1826
(lp1827
g1741
aI23950
aI0
aI0
aI22
aaa(lp1828
(lp1829
g1741
aI24550
aI0
aI0
aI22
aaa(lp1830
(lp1831
g1741
aI25150
aI0
aI0
aI22
aaa(lp1832
(lp1833
g1741
aI25750
aI0
aI0
aI22
aaa(lp1834
(lp1835
g1741
aI26350
aI0
aI0
aI22
aaa(lp1836
(lp1837
g1741
aI26950
aI0
aI0
aI22
aaa(lp1838
(lp1839
g1741
aI27550
aI0
aI0
aI22
aaa(lp1840
(lp1841
g1741
aI28150
aI0
aI0
aI22
aaa(lp1842
(lp1843
g1741
aI28755
aI0
aI0
aI22
aaa(lp1844
(lp1845
g1741
aI29350
aI0
aI0
aI22
aaa(lp1846
(lp1847
g1741
aI29950
aI0
aI0
aI22
aaa(lp1848
(lp1849
g1741
aI30550
aI0
aI0
aI22
aaa(lp1850
(lp1851
g1741
aI31150
aI0
aI0
aI22
aaa(lp1852
(lp1853
g1741
aI31750
aI0
aI0
aI22
aaa(lp1854
(lp1855
S'4cw453'
p1856
aI1786
aI0
aI0
aI5
aaa(lp1857
(lp1858
g1856
aI2410
aI0
aI0
aI5
aaa(lp1859
(lp1860
g1856
aI2428
aI0
aI0
aI5
aaa(lp1861
(lp1862
g1856
aI3010
aI0
aI0
aI7
aaa(lp1863
(lp1864
g1856
aI3032
aI0
aI0
aI7
aaa(lp1865
(lp1866
g1856
aI3610
aI0
aI0
aI7
aaa(lp1867
(lp1868
g1856
aI3634
aI0
aI0
aI7
aaa(lp1869
(lp1870
g1856
aI4210
aI0
aI0
aI8
aaa(lp1871
(lp1872
g1856
aI4238
aI0
aI0
aI8
aaa(lp1873
(lp1874
g1856
aI4810
aI0
aI0
aI8
aaa(lp1875
(lp1876
g1856
aI4846
aI0
aI0
aI8
aaa(lp1877
(lp1878
g1856
aI5637
aI0
aI0
aI8
aaa(lp1879
(lp1880
g1856
aI5675
aI0
aI0
aI8
aaa(lp1881
(lp1882
g1856
aI6235
aI0
aI0
aI8
aaa(lp1883
(lp1884
g1856
aI6277
aI0
aI0
aI8
aaa(lp1885
(lp1886
g1856
aI6835
aI0
aI0
aI8
aaa(lp1887
(lp1888
g1856
aI6877
aI0
aI0
aI8
aaa(lp1889
(lp1890
g1856
aI7435
aI0
aI0
aI10
aaa(lp1891
(lp1892
g1856
aI7481
aI0
aI0
aI10
aaa(lp1893
(lp1894
g1856
aI8035
aI0
aI0
aI11
aaa(lp1895
(lp1896
g1856
aI8085
aI0
aI0
aI11
aaa(lp1897
(lp1898
g1856
aI8635
aI0
aI0
aI12
aaa(lp1899
(lp1900
g1856
aI8692
aI0
aI0
aI12
aaa(lp1901
(lp1902
g1856
aI9235
aI0
aI0
aI13
aaa(lp1903
(lp1904
g1856
aI9297
aI0
aI0
aI13
aaa(lp1905
(lp1906
g1856
aI9839
aI0
aI0
aI13
aaa(lp1907
(lp1908
g1856
aI9914
aI0
aI0
aI13
aaa(lp1909
(lp1910
g1856
aI10435
aI0
aI0
aI15
aaa(lp1911
(lp1912
g1856
aI10513
aI0
aI0
aI15
aaa(lp1913
(lp1914
g1856
aI11035
aI0
aI0
aI15
aaa(lp1915
(lp1916
g1856
aI11115
aI0
aI0
aI15
aaa(lp1917
(lp1918
g1856
aI11635
aI0
aI0
aI15
aaa(lp1919
(lp1920
g1856
aI11715
aI0
aI0
aI15
aaa(lp1921
(lp1922
g1856
aI14805
aI0
aI0
aI16
aaa(lp1923
(lp1924
g1856
aI15403
aI0
aI0
aI16
aaa(lp1925
(lp1926
g1856
aI16003
aI0
aI0
aI16
aaa(lp1927
(lp1928
g1856
aI16603
aI0
aI0
aI16
aaa(lp1929
(lp1930
g1856
aI17203
aI0
aI0
aI16
aaa(lp1931
(lp1932
g1856
aI17803
aI0
aI0
aI16
aaa(lp1933
(lp1934
g1856
aI18403
aI0
aI0
aI16
aaa(lp1935
(lp1936
g1856
aI19003
aI0
aI0
aI16
aaa(lp1937
(lp1938
g1856
aI19603
aI0
aI0
aI16
aaa(lp1939
(lp1940
g1856
aI20203
aI0
aI0
aI16
aaa(lp1941
(lp1942
g1856
aI20803
aI0
aI0
aI16
aaa(lp1943
(lp1944
g1856
aI21403
aI0
aI0
aI16
aaa(lp1945
(lp1946
g1856
aI22003
aI0
aI0
aI16
aaa(lp1947
(lp1948
g1856
aI22603
aI0
aI0
aI16
aaa(lp1949
(lp1950
g1856
aI23203
aI0
aI0
aI16
aaa(lp1951
(lp1952
g1856
aI23803
aI0
aI0
aI16
aaa(lp1953
(lp1954
g1856
aI24403
aI0
aI0
aI16
aaa(lp1955
(lp1956
g1856
aI25003
aI0
aI0
aI16
aaa(lp1957
(lp1958
g1856
aI25609
aI0
aI0
aI16
aaa(lp1959
(lp1960
g1856
aI26203
aI0
aI0
aI16
aaa(lp1961
(lp1962
g1856
aI26803
aI0
aI0
aI16
aaa(lp1963
(lp1964
g1856
aI27403
aI0
aI0
aI16
aaa(lp1965
(lp1966
g1856
aI28003
aI0
aI0
aI16
aaa(lp1967
(lp1968
g1856
aI28603
aI0
aI0
aI16
aaa(lp1969
(lp1970
S'4cw5jg'
p1971
aI1330
aI0
aI0
aI4
aaa(lp1972
(lp1973
g1971
aI1958
aI0
aI0
aI5
aaa(lp1974
(lp1975
g1971
aI1974
aI0
aI0
aI5
aaa(lp1976
(lp1977
g1971
aI2558
aI0
aI0
aI5
aaa(lp1978
(lp1979
g1971
aI2578
aI0
aI0
aI5
aaa(lp1980
(lp1981
g1971
aI3158
aI0
aI0
aI5
aaa(lp1982
(lp1983
g1971
aI3180
aI0
aI0
aI5
aaa(lp1984
(lp1985
g1971
aI3758
aI0
aI0
aI5
aaa(lp1986
(lp1987
g1971
aI3784
aI0
aI0
aI5
aaa(lp1988
(lp1989
g1971
aI4358
aI0
aI0
aI5
aaa(lp1990
(lp1991
g1971
aI4390
aI0
aI0
aI5
aaa(lp1992
(lp1993
g1971
aI5185
aI1
aI0
aI6
aaa(lp1994
(lp1995
g1971
aI5783
aI0
aI0
aI6
aaa(lp1996
(lp1997
g1971
aI6383
aI0
aI0
aI6
aaa(lp1998
(lp1999
g1971
aI6983
aI0
aI0
aI6
aaa(lp2000
(lp2001
g1971
aI7583
aI1
aI0
aI6
aaa(lp2002
(lp2003
g1971
aI8183
aI0
aI0
aI6
aaa(lp2004
(lp2005
g1971
aI8783
aI0
aI0
aI6
aaa(lp2006
(lp2007
g1971
aI9387
aI1
aI0
aI6
aaa(lp2008
(lp2009
g1971
aI9983
aI0
aI0
aI6
aaa(lp2010
(lp2011
g1971
aI10583
aI0
aI0
aI6
aaa(lp2012
(lp2013
g1971
aI11183
aI1
aI0
aI6
aaa(lp2014
(lp2015
g1971
aI14353
aI0
aI0
aI6
aaa(lp2016
(lp2017
g1971
aI14951
aI0
aI0
aI6
aaa(lp2018
(lp2019
g1971
aI15551
aI2
aI0
aI6
aaa(lp2020
(lp2021
g1971
aI16151
aI1
aI0
aI6
aaa(lp2022
(lp2023
g1971
aI16751
aI0
aI0
aI6
aaa(lp2024
(lp2025
g1971
aI17351
aI2
aI0
aI6
aaa(lp2026
(lp2027
g1971
aI17951
aI0
aI0
aI6
aaa(lp2028
(lp2029
g1971
aI18551
aI0
aI0
aI6
aaa(lp2030
(lp2031
g1971
aI19151
aI0
aI0
aI6
aaa(lp2032
(lp2033
g1971
aI19751
aI0
aI0
aI6
aaa(lp2034
(lp2035
g1971
aI20351
aI0
aI0
aI6
aaa(lp2036
(lp2037
g1971
aI20951
aI0
aI0
aI6
aaa(lp2038
(lp2039
g1971
aI21551
aI1
aI0
aI6
aaa(lp2040
(lp2041
g1971
aI22151
aI0
aI0
aI6
aaa(lp2042
(lp2043
g1971
aI22751
aI1
aI0
aI6
aaa(lp2044
(lp2045
g1971
aI23351
aI0
aI0
aI6
aaa(lp2046
(lp2047
g1971
aI23951
aI1
aI0
aI6
aaa(lp2048
(lp2049
g1971
aI24551
aI0
aI0
aI6
aaa(lp2050
(lp2051
g1971
aI25156
aI0
aI0
aI6
aaa(lp2052
(lp2053
g1971
aI25751
aI0
aI0
aI6
aaa(lp2054
(lp2055
g1971
aI26351
aI1
aI0
aI6
aaa(lp2056
(lp2057
g1971
aI26951
aI2
aI0
aI6
aaa(lp2058
(lp2059
g1971
aI27551
aI0
aI0
aI6
aaa(lp2060
(lp2061
g1971
aI28151
aI2
aI0
aI6
aaa(lp2062
(lp2063
S'4cw7iy'
p2064
aI684
aI0
aI0
aI3
aaa(lp2065
(lp2066
g2064
aI1316
aI0
aI0
aI5
aaa(lp2067
(lp2068
g2064
aI1330
aI0
aI0
aI5
aaa(lp2069
(lp2070
g2064
aI1916
aI0
aI0
aI6
aaa(lp2071
(lp2072
g2064
aI1934
aI0
aI0
aI6
aaa(lp2073
(lp2074
g2064
aI2516
aI0
aI0
aI6
aaa(lp2075
(lp2076
g2064
aI2536
aI0
aI0
aI6
aaa(lp2077
(lp2078
g2064
aI3116
aI0
aI0
aI6
aaa(lp2079
(lp2080
g2064
aI3140
aI0
aI0
aI6
aaa(lp2081
(lp2082
g2064
aI3716
aI0
aI0
aI6
aaa(lp2083
(lp2084
g2064
aI3744
aI0
aI0
aI6
aaa(lp2085
(lp2086
g2064
aI4543
aI0
aI0
aI7
aaa(lp2087
(lp2088
g2064
aI4576
aI0
aI0
aI7
aaa(lp2089
(lp2090
g2064
aI5141
aI0
aI0
aI8
aaa(lp2091
(lp2092
g2064
aI5177
aI0
aI0
aI8
aaa(lp2093
(lp2094
g2064
aI5741
aI0
aI0
aI8
aaa(lp2095
(lp2096
g2064
aI5777
aI0
aI0
aI8
aaa(lp2097
(lp2098
g2064
aI6341
aI0
aI0
aI8
aaa(lp2099
(lp2100
g2064
aI6381
aI0
aI0
aI8
aaa(lp2101
(lp2102
g2064
aI6941
aI0
aI0
aI8
aaa(lp2103
(lp2104
g2064
aI6985
aI0
aI0
aI8
aaa(lp2105
(lp2106
g2064
aI7541
aI0
aI0
aI8
aaa(lp2107
(lp2108
g2064
aI7592
aI0
aI0
aI8
aaa(lp2109
(lp2110
g2064
aI8141
aI0
aI0
aI8
aaa(lp2111
(lp2112
g2064
aI8197
aI0
aI0
aI8
aaa(lp2113
(lp2114
g2064
aI8745
aI0
aI0
aI8
aaa(lp2115
(lp2116
g2064
aI8814
aI0
aI0
aI8
aaa(lp2117
(lp2118
g2064
aI9341
aI0
aI0
aI8
aaa(lp2119
(lp2120
g2064
aI9413
aI0
aI0
aI8
aaa(lp2121
(lp2122
g2064
aI9941
aI0
aI0
aI8
aaa(lp2123
(lp2124
g2064
aI10015
aI0
aI0
aI8
aaa(lp2125
(lp2126
g2064
aI10541
aI0
aI0
aI9
aaa(lp2127
(lp2128
g2064
aI10615
aI0
aI0
aI9
aaa(lp2129
(lp2130
g2064
aI13711
aI0
aI0
aI9
aaa(lp2131
(lp2132
g2064
aI14309
aI0
aI0
aI9
aaa(lp2133
(lp2134
g2064
aI14909
aI0
aI0
aI9
aaa(lp2135
(lp2136
g2064
aI15509
aI0
aI0
aI9
aaa(lp2137
(lp2138
g2064
aI16109
aI0
aI0
aI9
aaa(lp2139
(lp2140
g2064
aI16709
aI0
aI0
aI9
aaa(lp2141
(lp2142
g2064
aI17309
aI0
aI0
aI9
aaa(lp2143
(lp2144
g2064
aI17909
aI0
aI0
aI9
aaa(lp2145
(lp2146
g2064
aI18509
aI0
aI0
aI9
aaa(lp2147
(lp2148
g2064
aI19109
aI0
aI0
aI9
aaa(lp2149
(lp2150
g2064
aI19709
aI0
aI0
aI9
aaa(lp2151
(lp2152
g2064
aI20309
aI0
aI0
aI9
aaa(lp2153
(lp2154
g2064
aI20909
aI0
aI0
aI9
aaa(lp2155
(lp2156
g2064
aI21509
aI0
aI0
aI9
aaa(lp2157
(lp2158
g2064
aI22109
aI0
aI0
aI9
aaa(lp2159
(lp2160
g2064
aI22709
aI0
aI0
aI9
aaa(lp2161
(lp2162
g2064
aI23309
aI0
aI0
aI9
aaa(lp2163
(lp2164
g2064
aI23909
aI0
aI0
aI9
aaa(lp2165
(lp2166
g2064
aI24515
aI0
aI0
aI9
aaa(lp2167
(lp2168
g2064
aI25109
aI0
aI0
aI9
aaa(lp2169
(lp2170
g2064
aI25709
aI0
aI0
aI9
aaa(lp2171
(lp2172
g2064
aI26309
aI0
aI0
aI9
aaa(lp2173
(lp2174
g2064
aI26909
aI0
aI0
aI9
aaa(lp2175
(lp2176
g2064
aI27509
aI0
aI0
aI9
aaa(lp2177
(lp2178
S'4cw7xs'
p2179
aI554
aI1
aI0
aI0
aaa(lp2180
(lp2181
g2179
aI1190
aI0
aI0
aI0
aaa(lp2182
(lp2183
g2179
aI1202
aI0
aI0
aI0
aaa(lp2184
(lp2185
g2179
aI1790
aI1
aI0
aI0
aaa(lp2186
(lp2187
g2179
aI1806
aI1
aI0
aI0
aaa(lp2188
(lp2189
g2179
aI2390
aI5
aI0
aI1
aaa(lp2190
(lp2191
g2179
aI2408
aI5
aI0
aI1
aaa(lp2192
(lp2193
g2179
aI2990
aI8
aI0
aI2
aaa(lp2194
(lp2195
g2179
aI3012
aI8
aI0
aI2
aaa(lp2196
(lp2197
g2179
aI3590
aI8
aI0
aI2
aaa(lp2198
(lp2199
g2179
aI3616
aI8
aI0
aI2
aaa(lp2200
(lp2201
g2179
aI4417
aI12
aI0
aI4
aaa(lp2202
(lp2203
g2179
aI4445
aI12
aI0
aI4
aaa(lp2204
(lp2205
g2179
aI5015
aI14
aI0
aI7
aaa(lp2206
(lp2207
g2179
aI5047
aI14
aI0
aI7
aaa(lp2208
(lp2209
g2179
aI5615
aI14
aI0
aI8
aaa(lp2210
(lp2211
g2179
aI5647
aI14
aI0
aI8
aaa(lp2212
(lp2213
g2179
aI6215
aI18
aI0
aI10
aaa(lp2214
(lp2215
g2179
aI6251
aI18
aI0
aI10
aaa(lp2216
(lp2217
g2179
aI6815
aI19
aI0
aI10
aaa(lp2218
(lp2219
g2179
aI6855
aI19
aI0
aI10
aaa(lp2220
(lp2221
g2179
aI7415
aI23
aI0
aI10
aaa(lp2222
(lp2223
g2179
aI7462
aI23
aI0
aI10
aaa(lp2224
(lp2225
g2179
aI8015
aI24
aI0
aI11
aaa(lp2226
(lp2227
g2179
aI8067
aI24
aI0
aI11
aaa(lp2228
(lp2229
g2179
aI8619
aI24
aI0
aI11
aaa(lp2230
(lp2231
g2179
aI8684
aI24
aI0
aI11
aaa(lp2232
(lp2233
g2179
aI9215
aI24
aI0
aI11
aaa(lp2234
(lp2235
g2179
aI9283
aI24
aI0
aI11
aaa(lp2236
(lp2237
g2179
aI9815
aI24
aI0
aI12
aaa(lp2238
(lp2239
g2179
aI9885
aI24
aI0
aI12
aaa(lp2240
(lp2241
g2179
aI10415
aI27
aI0
aI12
aaa(lp2242
(lp2243
g2179
aI10485
aI27
aI0
aI12
aaa(lp2244
(lp2245
g2179
aI13585
aI32
aI0
aI13
aaa(lp2246
(lp2247
g2179
aI14183
aI34
aI0
aI16
aaa(lp2248
(lp2249
g2179
aI14783
aI33
aI0
aI16
aaa(lp2250
(lp2251
g2179
aI15383
aI33
aI0
aI18
aaa(lp2252
(lp2253
g2179
aI15983
aI32
aI0
aI19
aaa(lp2254
(lp2255
g2179
aI16583
aI31
aI0
aI19
aaa(lp2256
(lp2257
g2179
aI17183
aI36
aI0
aI19
aaa(lp2258
(lp2259
g2179
aI17783
aI38
aI0
aI19
aaa(lp2260
(lp2261
g2179
aI18383
aI35
aI0
aI19
aaa(lp2262
(lp2263
g2179
aI18983
aI36
aI0
aI19
aaa(lp2264
(lp2265
g2179
aI19583
aI38
aI0
aI20
aaa(lp2266
(lp2267
g2179
aI20183
aI38
aI0
aI20
aaa(lp2268
(lp2269
g2179
aI20783
aI36
aI0
aI20
aaa(lp2270
(lp2271
g2179
aI21383
aI39
aI0
aI20
aaa(lp2272
(lp2273
g2179
aI21983
aI42
aI0
aI20
aaa(lp2274
(lp2275
g2179
aI22583
aI43
aI0
aI20
aaa(lp2276
(lp2277
g2179
aI23183
aI41
aI0
aI20
aaa(lp2278
(lp2279
g2179
aI23783
aI43
aI0
aI20
aaa(lp2280
(lp2281
g2179
aI24389
aI44
aI0
aI21
aaa(lp2282
(lp2283
g2179
aI24983
aI43
aI0
aI21
aaa(lp2284
(lp2285
g2179
aI25583
aI43
aI0
aI21
aaa(lp2286
(lp2287
g2179
aI26183
aI45
aI0
aI21
aaa(lp2288
(lp2289
g2179
aI26783
aI47
aI0
aI21
aaa(lp2290
(lp2291
g2179
aI27383
aI43
aI0
aI21
aaa(lp2292
(lp2293
S'4cw82o'
p2294
aI506
aI1
aI0
aI2
aaa(lp2295
(lp2296
g2294
aI1146
aI1
aI0
aI5
aaa(lp2297
(lp2298
g2294
aI1156
aI1
aI0
aI5
aaa(lp2299
(lp2300
g2294
aI1746
aI2
aI0
aI9
aaa(lp2301
(lp2302
g2294
aI1760
aI2
aI0
aI9
aaa(lp2303
(lp2304
g2294
aI2346
aI2
aI0
aI10
aaa(lp2305
(lp2306
g2294
aI2362
aI2
aI0
aI10
aaa(lp2307
(lp2308
g2294
aI2946
aI3
aI0
aI13
aaa(lp2309
(lp2310
g2294
aI2966
aI3
aI0
aI13
aaa(lp2311
(lp2312
g2294
aI3546
aI4
aI0
aI13
aaa(lp2313
(lp2314
g2294
aI3570
aI4
aI0
aI13
aaa(lp2315
(lp2316
g2294
aI4373
aI5
aI0
aI13
aaa(lp2317
(lp2318
g2294
aI4399
aI5
aI0
aI13
aaa(lp2319
(lp2320
g2294
aI4971
aI7
aI0
aI14
aaa(lp2321
(lp2322
g2294
aI4999
aI7
aI0
aI14
aaa(lp2323
(lp2324
g2294
aI5571
aI7
aI0
aI14
aaa(lp2325
(lp2326
g2294
aI5600
aI7
aI0
aI14
aaa(lp2327
(lp2328
g2294
aI6171
aI8
aI0
aI16
aaa(lp2329
(lp2330
g2294
aI6203
aI8
aI0
aI16
aaa(lp2331
(lp2332
g2294
aI6771
aI8
aI0
aI18
aaa(lp2333
(lp2334
g2294
aI6807
aI8
aI0
aI18
aaa(lp2335
(lp2336
g2294
aI7371
aI6
aI0
aI18
aaa(lp2337
(lp2338
g2294
aI7414
aI6
aI0
aI18
aaa(lp2339
(lp2340
g2294
aI7971
aI5
aI0
aI18
aaa(lp2341
(lp2342
g2294
aI8019
aI5
aI0
aI18
aaa(lp2343
(lp2344
g2294
aI8575
aI8
aI0
aI19
aaa(lp2345
(lp2346
g2294
aI8636
aI8
aI0
aI19
aaa(lp2347
(lp2348
g2294
aI9171
aI6
aI0
aI19
aaa(lp2349
(lp2350
g2294
aI9235
aI6
aI0
aI19
aaa(lp2351
(lp2352
g2294
aI9771
aI8
aI0
aI19
aaa(lp2353
(lp2354
g2294
aI9837
aI8
aI0
aI19
aaa(lp2355
(lp2356
g2294
aI10371
aI7
aI0
aI20
aaa(lp2357
(lp2358
g2294
aI10437
aI7
aI0
aI20
aaa(lp2359
(lp2360
g2294
aI13541
aI10
aI0
aI19
aaa(lp2361
(lp2362
g2294
aI14139
aI8
aI0
aI19
aaa(lp2363
(lp2364
g2294
aI14739
aI9
aI0
aI19
aaa(lp2365
(lp2366
g2294
aI15339
aI9
aI0
aI19
aaa(lp2367
(lp2368
g2294
aI15939
aI10
aI0
aI19
aaa(lp2369
(lp2370
g2294
aI16539
aI9
aI0
aI22
aaa(lp2371
(lp2372
g2294
aI17139
aI10
aI0
aI22
aaa(lp2373
(lp2374
g2294
aI17739
aI11
aI0
aI22
aaa(lp2375
(lp2376
g2294
aI17865
aI11
aI0
aI22
aaa(lp2377
(lp2378
g2294
aI18339
aI12
aI0
aI22
aaa(lp2379
(lp2380
g2294
aI18939
aI13
aI0
aI22
aaa(lp2381
(lp2382
g2294
aI19539
aI14
aI0
aI24
aaa(lp2383
(lp2384
g2294
aI20139
aI14
aI0
aI24
aaa(lp2385
(lp2386
g2294
aI20739
aI13
aI0
aI26
aaa(lp2387
(lp2388
g2294
aI21339
aI11
aI0
aI29
aaa(lp2389
(lp2390
g2294
aI21939
aI12
aI0
aI33
aaa(lp2391
(lp2392
g2294
aI22539
aI12
aI0
aI36
aaa(lp2393
(lp2394
g2294
aI23139
aI15
aI0
aI38
aaa(lp2395
(lp2396
g2294
aI23739
aI14
aI0
aI40
aaa(lp2397
(lp2398
g2294
aI24345
aI14
aI0
aI40
aaa(lp2399
(lp2400
g2294
aI24939
aI13
aI0
aI42
aaa(lp2401
(lp2402
g2294
aI25539
aI15
aI0
aI43
aaa(lp2403
(lp2404
g2294
aI26139
aI14
aI0
aI43
aaa(lp2405
(lp2406
g2294
aI26739
aI13
aI0
aI43
aaa(lp2407
(lp2408
g2294
aI27339
aI13
aI0
aI43
aaa(lp2409
(lp2410
S'4cw9ge'
p2411
aI46
aI0
aI0
aI0
aaa(lp2412
(lp2413
g2411
aI690
aI0
aI0
aI2
aaa(lp2414
(lp2415
g2411
aI698
aI0
aI0
aI2
aaa(lp2416
(lp2417
g2411
aI1290
aI0
aI0
aI4
aaa(lp2418
(lp2419
g2411
aI1302
aI0
aI0
aI4
aaa(lp2420
(lp2421
g2411
aI1890
aI0
aI0
aI8
aaa(lp2422
(lp2423
g2411
aI1904
aI0
aI0
aI8
aaa(lp2424
(lp2425
g2411
aI2490
aI0
aI0
aI9
aaa(lp2426
(lp2427
g2411
aI3090
aI0
aI0
aI9
aaa(lp2428
(lp2429
g2411
aI3917
aI0
aI0
aI9
aaa(lp2430
(lp2431
g2411
aI4515
aI0
aI0
aI9
aaa(lp2432
(lp2433
g2411
aI5115
aI0
aI0
aI9
aaa(lp2434
(lp2435
g2411
aI5715
aI0
aI0
aI9
aaa(lp2436
(lp2437
g2411
aI6315
aI0
aI0
aI9
aaa(lp2438
(lp2439
g2411
aI6915
aI0
aI0
aI9
aaa(lp2440
(lp2441
g2411
aI7515
aI0
aI0
aI9
aaa(lp2442
(lp2443
g2411
aI8119
aI0
aI0
aI9
aaa(lp2444
(lp2445
g2411
aI8715
aI0
aI0
aI9
aaa(lp2446
(lp2447
g2411
aI9315
aI0
aI0
aI9
aaa(lp2448
(lp2449
g2411
aI9915
aI0
aI0
aI9
aaa(lp2450
(lp2451
g2411
aI13085
aI0
aI0
aI9
aaa(lp2452
(lp2453
g2411
aI13683
aI0
aI0
aI9
aaa(lp2454
(lp2455
g2411
aI14283
aI0
aI0
aI9
aaa(lp2456
(lp2457
g2411
aI14883
aI0
aI0
aI9
aaa(lp2458
(lp2459
g2411
aI15483
aI0
aI0
aI9
aaa(lp2460
(lp2461
g2411
aI16083
aI0
aI0
aI9
aaa(lp2462
(lp2463
g2411
aI16683
aI0
aI0
aI9
aaa(lp2464
(lp2465
g2411
aI17283
aI0
aI0
aI9
aaa(lp2466
(lp2467
g2411
aI17883
aI0
aI0
aI9
aaa(lp2468
(lp2469
g2411
aI18483
aI0
aI0
aI9
aaa(lp2470
(lp2471
g2411
aI19083
aI0
aI0
aI9
aaa(lp2472
(lp2473
g2411
aI19683
aI0
aI0
aI9
aaa(lp2474
(lp2475
g2411
aI20283
aI0
aI0
aI9
aaa(lp2476
(lp2477
g2411
aI20883
aI0
aI0
aI9
aaa(lp2478
(lp2479
g2411
aI21483
aI0
aI0
aI9
aaa(lp2480
(lp2481
g2411
aI22083
aI0
aI0
aI9
aaa(lp2482
(lp2483
g2411
aI22683
aI0
aI0
aI9
aaa(lp2484
(lp2485
g2411
aI23283
aI0
aI0
aI9
aaa(lp2486
(lp2487
g2411
aI23889
aI0
aI0
aI9
aaa(lp2488
(lp2489
g2411
aI24483
aI0
aI0
aI9
aaa(lp2490
(lp2491
g2411
aI25083
aI0
aI0
aI9
aaa(lp2492
(lp2493
g2411
aI25683
aI0
aI0
aI9
aaa(lp2494
(lp2495
g2411
aI26283
aI0
aI0
aI9
aaa(lp2496
(lp2497
g2411
aI26883
aI0
aI0
aI9
aaa(lp2498
(lp2499
S'4cwa7y'
p2500
aI444
aI0
aI0
aI7
aaa(lp2501
(lp2502
g2500
aI1038
aI0
aI0
aI17
aaa(lp2503
(lp2504
g2500
aI1048
aI0
aI0
aI17
aaa(lp2505
(lp2506
g2500
aI1638
aI0
aI0
aI33
aaa(lp2507
(lp2508
g2500
aI1650
aI0
aI0
aI33
aaa(lp2509
(lp2510
g2500
aI2238
aI0
aI0
aI52
aaa(lp2511
(lp2512
g2500
aI2254
aI0
aI0
aI52
aaa(lp2513
(lp2514
g2500
aI2838
aI0
aI0
aI61
aaa(lp2515
(lp2516
g2500
aI2858
aI0
aI0
aI61
aaa(lp2517
(lp2518
g2500
aI3666
aI0
aI0
aI68
aaa(lp2519
(lp2520
g2500
aI3687
aI0
aI0
aI68
aaa(lp2521
(lp2522
g2500
aI4264
aI0
aI0
aI73
aaa(lp2523
(lp2524
g2500
aI4287
aI0
aI0
aI73
aaa(lp2525
(lp2526
g2500
aI4863
aI0
aI0
aI74
aaa(lp2527
(lp2528
g2500
aI4888
aI0
aI0
aI74
aaa(lp2529
(lp2530
g2500
aI5464
aI0
aI0
aI78
aaa(lp2531
(lp2532
g2500
aI5489
aI0
aI0
aI78
aaa(lp2533
(lp2534
g2500
aI6064
aI0
aI0
aI81
aaa(lp2535
(lp2536
g2500
aI6093
aI0
aI0
aI81
aaa(lp2537
(lp2538
g2500
aI6664
aI0
aI0
aI84
aaa(lp2539
(lp2540
g2500
aI6700
aI0
aI0
aI84
aaa(lp2541
(lp2542
g2500
aI7264
aI0
aI0
aI84
aaa(lp2543
(lp2544
g2500
aI7305
aI0
aI0
aI84
aaa(lp2545
(lp2546
g2500
aI7867
aI0
aI0
aI85
aaa(lp2547
(lp2548
g2500
aI7923
aI0
aI0
aI85
aaa(lp2549
(lp2550
g2500
aI8464
aI0
aI0
aI85
aaa(lp2551
(lp2552
g2500
aI8521
aI0
aI0
aI85
aaa(lp2553
(lp2554
g2500
aI9064
aI0
aI0
aI85
aaa(lp2555
(lp2556
g2500
aI9123
aI0
aI0
aI85
aaa(lp2557
(lp2558
g2500
aI9664
aI0
aI0
aI87
aaa(lp2559
(lp2560
g2500
aI9723
aI0
aI0
aI87
aaa(lp2561
(lp2562
g2500
aI12834
aI0
aI0
aI94
aaa(lp2563
(lp2564
g2500
aI13431
aI0
aI0
aI94
aaa(lp2565
(lp2566
g2500
aI14031
aI0
aI0
aI94
aaa(lp2567
(lp2568
g2500
aI14631
aI0
aI0
aI94
aaa(lp2569
(lp2570
g2500
aI15232
aI0
aI0
aI94
aaa(lp2571
(lp2572
g2500
aI15831
aI0
aI0
aI94
aaa(lp2573
(lp2574
g2500
aI16431
aI0
aI0
aI94
aaa(lp2575
(lp2576
g2500
aI17031
aI0
aI0
aI94
aaa(lp2577
(lp2578
g2500
aI17631
aI0
aI0
aI94
aaa(lp2579
(lp2580
g2500
aI18231
aI0
aI0
aI94
aaa(lp2581
(lp2582
g2500
aI18831
aI0
aI0
aI94
aaa(lp2583
(lp2584
g2500
aI19431
aI0
aI0
aI94
aaa(lp2585
(lp2586
g2500
aI20031
aI0
aI0
aI94
aaa(lp2587
(lp2588
g2500
aI20631
aI0
aI0
aI94
aaa(lp2589
(lp2590
g2500
aI21231
aI0
aI0
aI94
aaa(lp2591
(lp2592
g2500
aI21831
aI0
aI0
aI94
aaa(lp2593
(lp2594
g2500
aI22431
aI0
aI0
aI94
aaa(lp2595
(lp2596
g2500
aI23031
aI0
aI0
aI94
aaa(lp2597
(lp2598
g2500
aI23637
aI0
aI0
aI94
aaa(lp2599
(lp2600
g2500
aI24231
aI0
aI0
aI94
aaa(lp2601
(lp2602
g2500
aI24831
aI0
aI0
aI94
aaa(lp2603
(lp2604
g2500
aI25432
aI0
aI0
aI94
aaa(lp2605
(lp2606
g2500
aI26031
aI0
aI0
aI94
aaa(lp2607
(lp2608
g2500
aI26631
aI0
aI0
aI94
aaa(lp2609
(lp2610
S'4cwar0'
p2611
aI265
aI3
aI0
aI2
aaa(lp2612
(lp2613
g2611
aI863
aI5
aI0
aI5
aaa(lp2614
(lp2615
g2611
aI871
aI5
aI0
aI5
aaa(lp2616
(lp2617
g2611
aI1463
aI16
aI0
aI10
aaa(lp2618
(lp2619
g2611
aI1473
aI16
aI0
aI10
aaa(lp2620
(lp2621
g2611
aI2063
aI27
aI0
aI17
aaa(lp2622
(lp2623
g2611
aI2077
aI27
aI0
aI17
aaa(lp2624
(lp2625
g2611
aI2663
aI39
aI0
aI35
aaa(lp2626
(lp2627
g2611
aI2681
aI39
aI0
aI35
aaa(lp2628
(lp2629
g2611
aI3490
aI56
aI0
aI50
aaa(lp2630
(lp2631
g2611
aI3510
aI56
aI0
aI50
aaa(lp2632
(lp2633
g2611
aI4088
aI73
aI0
aI64
aaa(lp2634
(lp2635
g2611
aI4110
aI73
aI0
aI64
aaa(lp2636
(lp2637
g2611
aI4689
aI87
aI0
aI77
aaa(lp2638
(lp2639
g2611
aI4711
aI87
aI0
aI77
aaa(lp2640
(lp2641
g2611
aI5289
aI109
aI0
aI88
aaa(lp2642
(lp2643
g2611
aI5312
aI109
aI0
aI88
aaa(lp2644
(lp2645
g2611
aI5889
aI126
aI0
aI98
aaa(lp2646
(lp2647
g2611
aI5916
aI126
aI0
aI98
aaa(lp2648
(lp2649
g2611
aI6489
aI144
aI0
aI106
aaa(lp2650
(lp2651
g2611
aI6521
aI144
aI0
aI106
aaa(lp2652
(lp2653
g2611
aI7089
aI159
aI0
aI121
aaa(lp2654
(lp2655
g2611
aI7126
aI159
aI0
aI121
aaa(lp2656
(lp2657
g2611
aI7692
aI167
aI0
aI135
aaa(lp2658
(lp2659
g2611
aI7744
aI167
aI0
aI135
aaa(lp2660
(lp2661
g2611
aI8289
aI178
aI0
aI140
aaa(lp2662
(lp2663
g2611
aI8342
aI178
aI0
aI140
aaa(lp2664
(lp2665
g2611
aI8889
aI189
aI0
aI146
aaa(lp2666
(lp2667
g2611
aI8944
aI189
aI0
aI146
aaa(lp2668
(lp2669
g2611
aI9489
aI202
aI0
aI152
aaa(lp2670
(lp2671
g2611
aI9544
aI202
aI0
aI152
aaa(lp2672
(lp2673
g2611
aI12659
aI268
aI0
aI201
aaa(lp2674
(lp2675
g2611
aI12751
aI264
aI0
aI203
aaa(lp2676
(lp2677
g2611
aI13257
aI267
aI0
aI210
aaa(lp2678
(lp2679
g2611
aI13857
aI280
aI0
aI223
aaa(lp2680
(lp2681
g2611
aI14457
aI289
aI0
aI234
aaa(lp2682
(lp2683
g2611
aI15057
aI301
aI0
aI242
aaa(lp2684
(lp2685
g2611
aI15657
aI316
aI0
aI246
aaa(lp2686
(lp2687
g2611
aI16257
aI325
aI0
aI259
aaa(lp2688
(lp2689
g2611
aI16375
aI327
aI0
aI259
aaa(lp2690
(lp2691
g2611
aI16857
aI335
aI0
aI275
aaa(lp2692
(lp2693
g2611
aI16975
aI334
aI0
aI275
aaa(lp2694
(lp2695
g2611
aI17457
aI339
aI0
aI284
aaa(lp2696
(lp2697
g2611
aI17575
aI338
aI0
aI288
aaa(lp2698
(lp2699
g2611
aI18057
aI349
aI0
aI290
aaa(lp2700
(lp2701
g2611
aI18657
aI352
aI0
aI292
aaa(lp2702
(lp2703
g2611
aI19257
aI354
aI0
aI288
aaa(lp2704
(lp2705
g2611
aI19857
aI375
aI0
aI295
aaa(lp2706
(lp2707
g2611
aI20457
aI379
aI0
aI302
aaa(lp2708
(lp2709
g2611
aI21057
aI381
aI0
aI304
aaa(lp2710
(lp2711
g2611
aI21657
aI384
aI0
aI306
aaa(lp2712
(lp2713
g2611
aI22257
aI399
aI0
aI308
aaa(lp2714
(lp2715
g2611
aI22857
aI396
aI0
aI313
aaa(lp2716
(lp2717
g2611
aI23463
aI397
aI0
aI320
aaa(lp2718
(lp2719
g2611
aI24057
aI402
aI0
aI322
aaa(lp2720
(lp2721
g2611
aI24657
aI404
aI0
aI324
aaa(lp2722
(lp2723
g2611
aI25257
aI397
aI0
aI324
aaa(lp2724
(lp2725
g2611
aI25857
aI404
aI0
aI324
aaa(lp2726
(lp2727
g2611
aI26457
aI400
aI0
aI325
aaa(lp2728
(lp2729
S'4cwbgm'
p2730
aI20
aI1
aI0
aI0
aaa(lp2731
(lp2732
g2730
aI622
aI0
aI0
aI2
aaa(lp2733
(lp2734
g2730
aI628
aI0
aI0
aI2
aaa(lp2735
(lp2736
g2730
aI1222
aI0
aI0
aI2
aaa(lp2737
(lp2738
g2730
aI1230
aI0
aI0
aI2
aaa(lp2739
(lp2740
g2730
aI1822
aI2
aI0
aI3
aaa(lp2741
(lp2742
g2730
aI1834
aI2
aI0
aI3
aaa(lp2743
(lp2744
g2730
aI2422
aI3
aI0
aI3
aaa(lp2745
(lp2746
g2730
aI2438
aI3
aI0
aI3
aaa(lp2747
(lp2748
g2730
aI3249
aI5
aI0
aI3
aaa(lp2749
(lp2750
g2730
aI3267
aI5
aI0
aI3
aaa(lp2751
(lp2752
g2730
aI3847
aI11
aI0
aI5
aaa(lp2753
(lp2754
g2730
aI3867
aI11
aI0
aI5
aaa(lp2755
(lp2756
g2730
aI4447
aI14
aI0
aI6
aaa(lp2757
(lp2758
g2730
aI4467
aI14
aI0
aI6
aaa(lp2759
(lp2760
g2730
aI5047
aI20
aI0
aI7
aaa(lp2761
(lp2762
g2730
aI5069
aI20
aI0
aI7
aaa(lp2763
(lp2764
g2730
aI5647
aI28
aI0
aI7
aaa(lp2765
(lp2766
g2730
aI5673
aI28
aI0
aI7
aaa(lp2767
(lp2768
g2730
aI6247
aI33
aI0
aI9
aaa(lp2769
(lp2770
g2730
aI6277
aI33
aI0
aI9
aaa(lp2771
(lp2772
g2730
aI6847
aI37
aI0
aI11
aaa(lp2773
(lp2774
g2730
aI6881
aI37
aI0
aI11
aaa(lp2775
(lp2776
g2730
aI7451
aI39
aI0
aI12
aaa(lp2777
(lp2778
g2730
aI7498
aI39
aI0
aI12
aaa(lp2779
(lp2780
g2730
aI8047
aI42
aI0
aI14
aaa(lp2781
(lp2782
g2730
aI8097
aI42
aI0
aI14
aaa(lp2783
(lp2784
g2730
aI8647
aI46
aI0
aI17
aaa(lp2785
(lp2786
g2730
aI8699
aI46
aI0
aI17
aaa(lp2787
(lp2788
g2730
aI9247
aI49
aI0
aI21
aaa(lp2789
(lp2790
g2730
aI9299
aI49
aI0
aI21
aaa(lp2791
(lp2792
g2730
aI12417
aI74
aI0
aI27
aaa(lp2793
(lp2794
g2730
aI12505
aI74
aI0
aI27
aaa(lp2795
(lp2796
g2730
aI13015
aI78
aI0
aI29
aaa(lp2797
(lp2798
g2730
aI13615
aI80
aI0
aI32
aaa(lp2799
(lp2800
g2730
aI14215
aI85
aI0
aI33
aaa(lp2801
(lp2802
g2730
aI14815
aI87
aI0
aI34
aaa(lp2803
(lp2804
g2730
aI15415
aI94
aI0
aI37
aaa(lp2805
(lp2806
g2730
aI16015
aI104
aI0
aI40
aaa(lp2807
(lp2808
g2730
aI16129
aI101
aI0
aI41
aaa(lp2809
(lp2810
g2730
aI16615
aI104
aI0
aI45
aaa(lp2811
(lp2812
g2730
aI16729
aI98
aI0
aI45
aaa(lp2813
(lp2814
g2730
aI17215
aI107
aI0
aI49
aaa(lp2815
(lp2816
g2730
aI17329
aI107
aI0
aI50
aaa(lp2817
(lp2818
g2730
aI17815
aI107
aI0
aI50
aaa(lp2819
(lp2820
g2730
aI17933
aI108
aI0
aI50
aaa(lp2821
(lp2822
g2730
aI18415
aI112
aI0
aI52
aaa(lp2823
(lp2824
g2730
aI19015
aI116
aI0
aI54
aaa(lp2825
(lp2826
g2730
aI19615
aI117
aI0
aI54
aaa(lp2827
(lp2828
g2730
aI20215
aI119
aI0
aI54
aaa(lp2829
(lp2830
g2730
aI20815
aI127
aI0
aI58
aaa(lp2831
(lp2832
g2730
aI21415
aI129
aI0
aI61
aaa(lp2833
(lp2834
g2730
aI22015
aI136
aI0
aI61
aaa(lp2835
(lp2836
g2730
aI22615
aI140
aI0
aI62
aaa(lp2837
(lp2838
g2730
aI23223
aI147
aI0
aI64
aaa(lp2839
(lp2840
g2730
aI23815
aI147
aI0
aI65
aaa(lp2841
(lp2842
g2730
aI24415
aI152
aI0
aI65
aaa(lp2843
(lp2844
g2730
aI25015
aI157
aI0
aI66
aaa(lp2845
(lp2846
g2730
aI25615
aI157
aI0
aI67
aaa(lp2847
(lp2848
g2730
aI26215
aI153
aI0
aI69
aaa(lp2849
(lp2850
S'4cwbya'
p2851
aI463
aI8
aI0
aI2
aaa(lp2852
(lp2853
g2851
aI1059
aI35
aI0
aI9
aaa(lp2854
(lp2855
g2851
aI1065
aI35
aI0
aI9
aaa(lp2856
(lp2857
g2851
aI1659
aI61
aI0
aI13
aaa(lp2858
(lp2859
g2851
aI1669
aI61
aI0
aI13
aaa(lp2860
(lp2861
g2851
aI2259
aI98
aI0
aI17
aaa(lp2862
(lp2863
g2851
aI2273
aI98
aI0
aI17
aaa(lp2864
(lp2865
g2851
aI3086
aI117
aI0
aI17
aaa(lp2866
(lp2867
g2851
aI3684
aI116
aI0
aI17
aaa(lp2868
(lp2869
g2851
aI4284
aI119
aI0
aI17
aaa(lp2870
(lp2871
g2851
aI4884
aI119
aI0
aI17
aaa(lp2872
(lp2873
g2851
aI5484
aI119
aI0
aI17
aaa(lp2874
(lp2875
g2851
aI6084
aI119
aI0
aI17
aaa(lp2876
(lp2877
g2851
aI6684
aI118
aI0
aI17
aaa(lp2878
(lp2879
g2851
aI7288
aI120
aI0
aI17
aaa(lp2880
(lp2881
g2851
aI7884
aI117
aI0
aI17
aaa(lp2882
(lp2883
g2851
aI8484
aI117
aI0
aI17
aaa(lp2884
(lp2885
g2851
aI9084
aI117
aI0
aI17
aaa(lp2886
(lp2887
g2851
aI12254
aI118
aI0
aI17
aaa(lp2888
(lp2889
g2851
aI12852
aI115
aI0
aI17
aaa(lp2890
(lp2891
g2851
aI13452
aI115
aI0
aI17
aaa(lp2892
(lp2893
g2851
aI14052
aI118
aI0
aI17
aaa(lp2894
(lp2895
g2851
aI14652
aI117
aI0
aI17
aaa(lp2896
(lp2897
g2851
aI15252
aI116
aI0
aI17
aaa(lp2898
(lp2899
g2851
aI15852
aI120
aI0
aI17
aaa(lp2900
(lp2901
g2851
aI16452
aI116
aI0
aI17
aaa(lp2902
(lp2903
g2851
aI17052
aI117
aI0
aI17
aaa(lp2904
(lp2905
g2851
aI17652
aI116
aI0
aI17
aaa(lp2906
(lp2907
g2851
aI18252
aI119
aI0
aI17
aaa(lp2908
(lp2909
g2851
aI18852
aI118
aI0
aI17
aaa(lp2910
(lp2911
g2851
aI19452
aI116
aI0
aI17
aaa(lp2912
(lp2913
g2851
aI20052
aI116
aI0
aI17
aaa(lp2914
(lp2915
g2851
aI20652
aI118
aI0
aI17
aaa(lp2916
(lp2917
g2851
aI21252
aI115
aI0
aI17
aaa(lp2918
(lp2919
g2851
aI21852
aI114
aI0
aI17
aaa(lp2920
(lp2921
g2851
aI22452
aI116
aI0
aI17
aaa(lp2922
(lp2923
g2851
aI23060
aI116
aI0
aI17
aaa(lp2924
(lp2925
g2851
aI23652
aI120
aI0
aI17
aaa(lp2926
(lp2927
g2851
aI24252
aI119
aI0
aI17
aaa(lp2928
(lp2929
g2851
aI24852
aI117
aI0
aI17
aaa(lp2930
(lp2931
g2851
aI25452
aI117
aI0
aI17
aaa(lp2932
(lp2933
g2851
aI26052
aI118
aI0
aI17
aaa(lp2934
(lp2935
S'4cwcic'
p2936
aI294
aI0
aI0
aI0
aaa(lp2937
(lp2938
g2936
aI894
aI1
aI0
aI1
aaa(lp2939
(lp2940
g2936
aI898
aI1
aI0
aI1
aaa(lp2941
(lp2942
g2936
aI1494
aI1
aI0
aI3
aaa(lp2943
(lp2944
g2936
aI1502
aI1
aI0
aI3
aaa(lp2945
(lp2946
g2936
aI2094
aI1
aI0
aI4
aaa(lp2947
(lp2948
g2936
aI2106
aI1
aI0
aI4
aaa(lp2949
(lp2950
g2936
aI2921
aI3
aI0
aI5
aaa(lp2951
(lp2952
g2936
aI2935
aI3
aI0
aI5
aaa(lp2953
(lp2954
g2936
aI3519
aI4
aI0
aI7
aaa(lp2955
(lp2956
g2936
aI3535
aI4
aI0
aI7
aaa(lp2957
(lp2958
g2936
aI4119
aI7
aI0
aI7
aaa(lp2959
(lp2960
g2936
aI4135
aI7
aI0
aI7
aaa(lp2961
(lp2962
g2936
aI4719
aI8
aI0
aI8
aaa(lp2963
(lp2964
g2936
aI4737
aI8
aI0
aI8
aaa(lp2965
(lp2966
g2936
aI5319
aI7
aI0
aI8
aaa(lp2967
(lp2968
g2936
aI5341
aI7
aI0
aI8
aaa(lp2969
(lp2970
g2936
aI5919
aI9
aI0
aI8
aaa(lp2971
(lp2972
g2936
aI5945
aI9
aI0
aI8
aaa(lp2973
(lp2974
g2936
aI6519
aI8
aI0
aI11
aaa(lp2975
(lp2976
g2936
aI6547
aI8
aI0
aI11
aaa(lp2977
(lp2978
g2936
aI7123
aI8
aI0
aI17
aaa(lp2979
(lp2980
g2936
aI7164
aI8
aI0
aI17
aaa(lp2981
(lp2982
g2936
aI7719
aI10
aI0
aI20
aaa(lp2983
(lp2984
g2936
aI7763
aI10
aI0
aI20
aaa(lp2985
(lp2986
g2936
aI8319
aI9
aI0
aI21
aaa(lp2987
(lp2988
g2936
aI8365
aI9
aI0
aI21
aaa(lp2989
(lp2990
g2936
aI8919
aI10
aI0
aI21
aaa(lp2991
(lp2992
g2936
aI8965
aI10
aI0
aI21
aaa(lp2993
(lp2994
g2936
aI12090
aI12
aI0
aI25
aaa(lp2995
(lp2996
g2936
aI12171
aI12
aI0
aI25
aaa(lp2997
(lp2998
g2936
aI12687
aI13
aI0
aI25
aaa(lp2999
(lp3000
g2936
aI12775
aI13
aI0
aI25
aaa(lp3001
(lp3002
g2936
aI13287
aI12
aI0
aI25
aaa(lp3003
(lp3004
g2936
aI13887
aI12
aI0
aI25
aaa(lp3005
(lp3006
g2936
aI14487
aI12
aI0
aI25
aaa(lp3007
(lp3008
g2936
aI15087
aI14
aI0
aI25
aaa(lp3009
(lp3010
g2936
aI15687
aI12
aI0
aI25
aaa(lp3011
(lp3012
g2936
aI16287
aI12
aI0
aI25
aaa(lp3013
(lp3014
g2936
aI16887
aI12
aI0
aI25
aaa(lp3015
(lp3016
g2936
aI17487
aI12
aI0
aI25
aaa(lp3017
(lp3018
g2936
aI18087
aI12
aI0
aI25
aaa(lp3019
(lp3020
g2936
aI18687
aI10
aI0
aI25
aaa(lp3021
(lp3022
g2936
aI19287
aI14
aI0
aI25
aaa(lp3023
(lp3024
g2936
aI19887
aI12
aI0
aI25
aaa(lp3025
(lp3026
g2936
aI20487
aI12
aI0
aI25
aaa(lp3027
(lp3028
g2936
aI21087
aI12
aI0
aI25
aaa(lp3029
(lp3030
g2936
aI21687
aI11
aI0
aI25
aaa(lp3031
(lp3032
g2936
aI22287
aI14
aI0
aI25
aaa(lp3033
(lp3034
g2936
aI22896
aI12
aI0
aI25
aaa(lp3035
(lp3036
g2936
aI23487
aI12
aI0
aI25
aaa(lp3037
(lp3038
g2936
aI24087
aI12
aI0
aI25
aaa(lp3039
(lp3040
g2936
aI24687
aI10
aI0
aI25
aaa(lp3041
(lp3042
g2936
aI25287
aI12
aI0
aI25
aaa(lp3043
(lp3044
g2936
aI25887
aI14
aI0
aI25
aaa(lp3045
(lp3046
S'4cwdhk'
p3047
aI597
aI7
aI0
aI2
aaa(lp3048
(lp3049
g3047
aI1195
aI10
aI0
aI5
aaa(lp3050
(lp3051
g3047
aI1201
aI10
aI0
aI5
aaa(lp3052
(lp3053
g3047
aI1795
aI25
aI0
aI5
aaa(lp3054
(lp3055
g3047
aI1805
aI25
aI0
aI5
aaa(lp3056
(lp3057
g3047
aI2622
aI37
aI0
aI6
aaa(lp3058
(lp3059
g3047
aI2634
aI37
aI0
aI6
aaa(lp3060
(lp3061
g3047
aI3220
aI53
aI0
aI8
aaa(lp3062
(lp3063
g3047
aI3234
aI53
aI0
aI8
aaa(lp3064
(lp3065
g3047
aI3820
aI65
aI0
aI13
aaa(lp3066
(lp3067
g3047
aI3834
aI65
aI0
aI13
aaa(lp3068
(lp3069
g3047
aI4420
aI84
aI0
aI18
aaa(lp3070
(lp3071
g3047
aI4436
aI84
aI0
aI18
aaa(lp3072
(lp3073
g3047
aI5020
aI100
aI0
aI19
aaa(lp3074
(lp3075
g3047
aI5040
aI100
aI0
aI19
aaa(lp3076
(lp3077
g3047
aI5620
aI120
aI0
aI26
aaa(lp3078
(lp3079
g3047
aI5644
aI120
aI0
aI26
aaa(lp3080
(lp3081
g3047
aI6220
aI132
aI0
aI30
aaa(lp3082
(lp3083
g3047
aI6246
aI132
aI0
aI30
aaa(lp3084
(lp3085
g3047
aI6824
aI147
aI0
aI34
aaa(lp3086
(lp3087
g3047
aI6862
aI147
aI0
aI34
aaa(lp3088
(lp3089
g3047
aI7420
aI158
aI0
aI35
aaa(lp3090
(lp3091
g3047
aI7460
aI158
aI0
aI35
aaa(lp3092
(lp3093
g3047
aI8020
aI169
aI0
aI36
aaa(lp3094
(lp3095
g3047
aI8062
aI169
aI0
aI36
aaa(lp3096
(lp3097
g3047
aI8620
aI186
aI0
aI38
aaa(lp3098
(lp3099
g3047
aI8662
aI186
aI0
aI38
aaa(lp3100
(lp3101
g3047
aI11791
aI292
aI0
aI47
aaa(lp3102
(lp3103
g3047
aI11868
aI292
aI0
aI47
aaa(lp3104
(lp3105
g3047
aI12388
aI317
aI0
aI50
aaa(lp3106
(lp3107
g3047
aI12472
aI317
aI0
aI50
aaa(lp3108
(lp3109
g3047
aI12988
aI347
aI0
aI54
aaa(lp3110
(lp3111
g3047
aI13588
aI372
aI0
aI57
aaa(lp3112
(lp3113
g3047
aI14188
aI400
aI0
aI60
aaa(lp3114
(lp3115
g3047
aI14788
aI429
aI0
aI61
aaa(lp3116
(lp3117
g3047
aI14894
aI432
aI0
aI61
aaa(lp3118
(lp3119
g3047
aI15388
aI447
aI0
aI61
aaa(lp3120
(lp3121
g3047
aI15494
aI448
aI0
aI62
aaa(lp3122
(lp3123
g3047
aI15988
aI475
aI0
aI63
aaa(lp3124
(lp3125
g3047
aI16094
aI478
aI0
aI63
aaa(lp3126
(lp3127
g3047
aI16588
aI503
aI0
aI65
aaa(lp3128
(lp3129
g3047
aI16694
aI511
aI0
aI66
aaa(lp3130
(lp3131
g3047
aI17188
aI532
aI0
aI67
aaa(lp3132
(lp3133
g3047
aI17298
aI541
aI0
aI67
aaa(lp3134
(lp3135
g3047
aI17788
aI561
aI0
aI69
aaa(lp3136
(lp3137
g3047
aI18388
aI583
aI0
aI72
aaa(lp3138
(lp3139
g3047
aI18988
aI614
aI0
aI76
aaa(lp3140
(lp3141
g3047
aI19588
aI634
aI0
aI77
aaa(lp3142
(lp3143
g3047
aI20188
aI673
aI0
aI82
aaa(lp3144
(lp3145
g3047
aI20788
aI686
aI0
aI87
aaa(lp3146
(lp3147
g3047
aI21388
aI721
aI0
aI89
aaa(lp3148
(lp3149
g3047
aI21988
aI737
aI0
aI90
aaa(lp3150
(lp3151
g3047
aI22601
aI761
aI0
aI93
aaa(lp3152
(lp3153
g3047
aI23188
aI781
aI0
aI95
aaa(lp3154
(lp3155
g3047
aI23788
aI797
aI0
aI95
aaa(lp3156
(lp3157
g3047
aI24388
aI807
aI0
aI94
aaa(lp3158
(lp3159
g3047
aI24988
aI816
aI0
aI94
aaa(lp3160
(lp3161
g3047
aI25588
aI831
aI0
aI94
aaa(lp3162
(lp3163
S'4cwgkn'
p3164
aI289
aI3
aI0
aI1
aaa(lp3165
(lp3166
g3164
aI885
aI12
aI0
aI3
aaa(lp3167
(lp3168
g3164
aI893
aI12
aI0
aI3
aaa(lp3169
(lp3170
g3164
aI1712
aI38
aI0
aI16
aaa(lp3171
(lp3172
g3164
aI2310
aI48
aI0
aI17
aaa(lp3173
(lp3174
g3164
aI2910
aI48
aI0
aI18
aaa(lp3175
(lp3176
g3164
aI3510
aI47
aI0
aI18
aaa(lp3177
(lp3178
g3164
aI4110
aI48
aI0
aI18
aaa(lp3179
(lp3180
g3164
aI4710
aI46
aI0
aI18
aaa(lp3181
(lp3182
g3164
aI5310
aI47
aI0
aI18
aaa(lp3183
(lp3184
g3164
aI5914
aI47
aI0
aI18
aaa(lp3185
(lp3186
g3164
aI6510
aI45
aI0
aI19
aaa(lp3187
(lp3188
g3164
aI7110
aI49
aI0
aI19
aaa(lp3189
(lp3190
g3164
aI7710
aI47
aI0
aI19
aaa(lp3191
(lp3192
g3164
aI10880
aI50
aI0
aI19
aaa(lp3193
(lp3194
g3164
aI11478
aI46
aI0
aI19
aaa(lp3195
(lp3196
g3164
aI12078
aI50
aI0
aI19
aaa(lp3197
(lp3198
g3164
aI12678
aI49
aI0
aI19
aaa(lp3199
(lp3200
g3164
aI13278
aI47
aI0
aI19
aaa(lp3201
(lp3202
g3164
aI13878
aI50
aI0
aI19
aaa(lp3203
(lp3204
g3164
aI14478
aI48
aI0
aI19
aaa(lp3205
(lp3206
g3164
aI15078
aI43
aI0
aI19
aaa(lp3207
(lp3208
g3164
aI15678
aI51
aI0
aI19
aaa(lp3209
(lp3210
g3164
aI16278
aI51
aI0
aI19
aaa(lp3211
(lp3212
g3164
aI16878
aI48
aI0
aI19
aaa(lp3213
(lp3214
g3164
aI17478
aI46
aI0
aI19
aaa(lp3215
(lp3216
g3164
aI18078
aI51
aI0
aI19
aaa(lp3217
(lp3218
g3164
aI18678
aI45
aI0
aI19
aaa(lp3219
(lp3220
g3164
aI19278
aI49
aI0
aI19
aaa(lp3221
(lp3222
g3164
aI19878
aI46
aI0
aI19
aaa(lp3223
(lp3224
g3164
aI20478
aI43
aI0
aI19
aaa(lp3225
(lp3226
g3164
aI21078
aI51
aI0
aI19
aaa(lp3227
(lp3228
g3164
aI21691
aI45
aI0
aI19
aaa(lp3229
(lp3230
g3164
aI22278
aI48
aI0
aI19
aaa(lp3231
(lp3232
g3164
aI22878
aI45
aI0
aI19
aaa(lp3233
(lp3234
g3164
aI23478
aI44
aI0
aI19
aaa(lp3235
(lp3236
g3164
aI24078
aI46
aI0
aI19
aaa(lp3237
(lp3238
g3164
aI24678
aI47
aI0
aI19
aaa(lp3239
(lp3240
S'4cwhj4'
p3241
aI19
aI1
aI0
aI0
aaa(lp3242
(lp3243
g3241
aI619
aI3
aI0
aI2
aaa(lp3244
(lp3245
g3241
aI625
aI3
aI0
aI2
aaa(lp3246
(lp3247
g3241
aI1446
aI0
aI0
aI1
aaa(lp3248
(lp3249
g3241
aI1454
aI0
aI0
aI1
aaa(lp3250
(lp3251
g3241
aI2044
aI0
aI0
aI1
aaa(lp3252
(lp3253
g3241
aI2054
aI0
aI0
aI1
aaa(lp3254
(lp3255
g3241
aI2644
aI0
aI0
aI1
aaa(lp3256
(lp3257
g3241
aI2654
aI0
aI0
aI1
aaa(lp3258
(lp3259
g3241
aI3244
aI0
aI0
aI2
aaa(lp3260
(lp3261
g3241
aI3256
aI0
aI0
aI2
aaa(lp3262
(lp3263
g3241
aI3844
aI0
aI0
aI2
aaa(lp3264
(lp3265
g3241
aI3860
aI0
aI0
aI2
aaa(lp3266
(lp3267
g3241
aI4444
aI1
aI0
aI2
aaa(lp3268
(lp3269
g3241
aI4464
aI1
aI0
aI2
aaa(lp3270
(lp3271
g3241
aI5044
aI1
aI0
aI2
aaa(lp3272
(lp3273
g3241
aI5066
aI1
aI0
aI2
aaa(lp3274
(lp3275
g3241
aI5648
aI0
aI0
aI2
aaa(lp3276
(lp3277
g3241
aI5679
aI0
aI0
aI2
aaa(lp3278
(lp3279
g3241
aI6244
aI0
aI0
aI3
aaa(lp3280
(lp3281
g3241
aI6278
aI0
aI0
aI3
aaa(lp3282
(lp3283
g3241
aI6844
aI0
aI0
aI3
aaa(lp3284
(lp3285
g3241
aI6880
aI0
aI0
aI3
aaa(lp3286
(lp3287
g3241
aI7444
aI1
aI0
aI3
aaa(lp3288
(lp3289
g3241
aI7480
aI1
aI0
aI3
aaa(lp3290
(lp3291
g3241
aI10614
aI3
aI0
aI3
aaa(lp3292
(lp3293
g3241
aI11212
aI3
aI0
aI3
aaa(lp3294
(lp3295
g3241
aI11812
aI3
aI0
aI3
aaa(lp3296
(lp3297
g3241
aI12412
aI0
aI0
aI3
aaa(lp3298
(lp3299
g3241
aI13012
aI0
aI0
aI3
aaa(lp3300
(lp3301
g3241
aI13612
aI1
aI0
aI3
aaa(lp3302
(lp3303
g3241
aI14212
aI0
aI0
aI3
aaa(lp3304
(lp3305
g3241
aI14812
aI2
aI0
aI3
aaa(lp3306
(lp3307
g3241
aI15412
aI2
aI0
aI3
aaa(lp3308
(lp3309
g3241
aI16012
aI1
aI0
aI3
aaa(lp3310
(lp3311
g3241
aI16612
aI1
aI0
aI3
aaa(lp3312
(lp3313
g3241
aI17212
aI2
aI0
aI3
aaa(lp3314
(lp3315
g3241
aI17812
aI0
aI0
aI3
aaa(lp3316
(lp3317
g3241
aI18412
aI3
aI0
aI3
aaa(lp3318
(lp3319
g3241
aI19012
aI1
aI0
aI3
aaa(lp3320
(lp3321
g3241
aI19612
aI1
aI0
aI3
aaa(lp3322
(lp3323
g3241
aI20212
aI1
aI0
aI3
aaa(lp3324
(lp3325
g3241
aI20812
aI2
aI0
aI3
aaa(lp3326
(lp3327
g3241
aI21425
aI1
aI0
aI3
aaa(lp3328
(lp3329
g3241
aI22012
aI1
aI0
aI3
aaa(lp3330
(lp3331
g3241
aI22612
aI0
aI0
aI3
aaa(lp3332
(lp3333
g3241
aI23212
aI2
aI0
aI3
aaa(lp3334
(lp3335
g3241
aI23812
aI0
aI0
aI3
aaa(lp3336
(lp3337
g3241
aI24412
aI0
aI0
aI3
aaa(lp3338
(lp3339
S'4cwhph'
p3340
aI570
aI5
aI0
aI1
aaa(lp3341
(lp3342
g3340
aI1393
aI10
aI0
aI1
aaa(lp3343
(lp3344
g3340
aI1399
aI10
aI0
aI1
aaa(lp3345
(lp3346
g3340
aI1991
aI12
aI0
aI3
aaa(lp3347
(lp3348
g3340
aI1999
aI12
aI0
aI3
aaa(lp3349
(lp3350
g3340
aI2591
aI13
aI0
aI6
aaa(lp3351
(lp3352
g3340
aI2599
aI13
aI0
aI6
aaa(lp3353
(lp3354
g3340
aI3191
aI14
aI0
aI10
aaa(lp3355
(lp3356
g3340
aI3201
aI14
aI0
aI10
aaa(lp3357
(lp3358
g3340
aI3791
aI15
aI0
aI18
aaa(lp3359
(lp3360
g3340
aI3805
aI15
aI0
aI18
aaa(lp3361
(lp3362
g3340
aI4391
aI15
aI0
aI21
aaa(lp3363
(lp3364
g3340
aI4409
aI15
aI0
aI21
aaa(lp3365
(lp3366
g3340
aI4991
aI17
aI0
aI23
aaa(lp3367
(lp3368
g3340
aI5011
aI17
aI0
aI23
aaa(lp3369
(lp3370
g3340
aI5595
aI18
aI0
aI24
aaa(lp3371
(lp3372
g3340
aI5623
aI18
aI0
aI24
aaa(lp3373
(lp3374
g3340
aI6191
aI19
aI0
aI29
aaa(lp3375
(lp3376
g3340
aI6221
aI19
aI0
aI29
aaa(lp3377
(lp3378
g3340
aI6791
aI20
aI0
aI31
aaa(lp3379
(lp3380
g3340
aI6823
aI20
aI0
aI31
aaa(lp3381
(lp3382
g3340
aI7391
aI20
aI0
aI34
aaa(lp3383
(lp3384
g3340
aI7423
aI20
aI0
aI34
aaa(lp3385
(lp3386
g3340
aI10562
aI39
aI0
aI53
aaa(lp3387
(lp3388
g3340
aI10631
aI39
aI0
aI53
aaa(lp3389
(lp3390
g3340
aI11159
aI38
aI0
aI54
aaa(lp3391
(lp3392
g3340
aI11235
aI38
aI0
aI54
aaa(lp3393
(lp3394
g3340
aI11759
aI38
aI0
aI54
aaa(lp3395
(lp3396
g3340
aI11841
aI38
aI0
aI54
aaa(lp3397
(lp3398
g3340
aI12359
aI41
aI0
aI56
aaa(lp3399
(lp3400
g3340
aI12959
aI44
aI0
aI58
aaa(lp3401
(lp3402
g3340
aI13559
aI48
aI0
aI59
aaa(lp3403
(lp3404
g3340
aI13657
aI44
aI0
aI59
aaa(lp3405
(lp3406
g3340
aI14159
aI49
aI0
aI59
aaa(lp3407
(lp3408
g3340
aI14257
aI43
aI0
aI59
aaa(lp3409
(lp3410
g3340
aI14759
aI45
aI0
aI60
aaa(lp3411
(lp3412
g3340
aI14857
aI49
aI0
aI60
aaa(lp3413
(lp3414
g3340
aI15359
aI50
aI0
aI63
aaa(lp3415
(lp3416
g3340
aI15457
aI54
aI0
aI63
aaa(lp3417
(lp3418
g3340
aI15959
aI55
aI0
aI64
aaa(lp3419
(lp3420
g3340
aI16061
aI53
aI0
aI64
aaa(lp3421
(lp3422
g3340
aI16559
aI53
aI0
aI64
aaa(lp3423
(lp3424
g3340
aI16665
aI52
aI0
aI65
aaa(lp3425
(lp3426
g3340
aI17159
aI54
aI0
aI67
aaa(lp3427
(lp3428
g3340
aI17269
aI59
aI0
aI67
aaa(lp3429
(lp3430
g3340
aI17759
aI51
aI0
aI70
aaa(lp3431
(lp3432
g3340
aI18359
aI57
aI0
aI71
aaa(lp3433
(lp3434
g3340
aI18959
aI59
aI0
aI73
aaa(lp3435
(lp3436
g3340
aI19559
aI61
aI0
aI74
aaa(lp3437
(lp3438
g3340
aI20159
aI61
aI0
aI77
aaa(lp3439
(lp3440
g3340
aI20759
aI60
aI0
aI77
aaa(lp3441
(lp3442
g3340
aI21373
aI67
aI0
aI78
aaa(lp3443
(lp3444
g3340
aI21959
aI66
aI0
aI78
aaa(lp3445
(lp3446
g3340
aI22559
aI69
aI0
aI78
aaa(lp3447
(lp3448
g3340
aI23160
aI65
aI0
aI80
aaa(lp3449
(lp3450
g3340
aI23759
aI71
aI0
aI80
aaa(lp3451
(lp3452
g3340
aI24359
aI67
aI0
aI81
aaa(lp3453
(lp3454
S'4cwibk'
p3455
aI367
aI1
aI0
aI0
aaa(lp3456
(lp3457
g3455
aI1194
aI0
aI0
aI3
aaa(lp3458
(lp3459
g3455
aI1198
aI0
aI0
aI3
aaa(lp3460
(lp3461
g3455
aI1792
aI0
aI0
aI7
aaa(lp3462
(lp3463
g3455
aI1798
aI0
aI0
aI7
aaa(lp3464
(lp3465
g3455
aI2392
aI0
aI0
aI8
aaa(lp3466
(lp3467
g3455
aI2398
aI0
aI0
aI8
aaa(lp3468
(lp3469
g3455
aI2992
aI0
aI0
aI9
aaa(lp3470
(lp3471
g3455
aI3000
aI0
aI0
aI9
aaa(lp3472
(lp3473
g3455
aI3592
aI0
aI0
aI9
aaa(lp3474
(lp3475
g3455
aI3604
aI0
aI0
aI9
aaa(lp3476
(lp3477
g3455
aI4192
aI0
aI0
aI10
aaa(lp3478
(lp3479
g3455
aI4208
aI0
aI0
aI10
aaa(lp3480
(lp3481
g3455
aI4792
aI0
aI0
aI11
aaa(lp3482
(lp3483
g3455
aI4810
aI0
aI0
aI11
aaa(lp3484
(lp3485
g3455
aI5396
aI0
aI0
aI12
aaa(lp3486
(lp3487
g3455
aI5422
aI0
aI0
aI12
aaa(lp3488
(lp3489
g3455
aI5992
aI0
aI0
aI15
aaa(lp3490
(lp3491
g3455
aI6020
aI0
aI0
aI15
aaa(lp3492
(lp3493
g3455
aI6592
aI0
aI0
aI16
aaa(lp3494
(lp3495
g3455
aI6621
aI0
aI0
aI16
aaa(lp3496
(lp3497
g3455
aI7192
aI0
aI0
aI16
aaa(lp3498
(lp3499
g3455
aI7221
aI0
aI0
aI16
aaa(lp3500
(lp3501
g3455
aI10362
aI0
aI0
aI18
aaa(lp3502
(lp3503
g3455
aI10428
aI0
aI0
aI18
aaa(lp3504
(lp3505
g3455
aI10960
aI0
aI0
aI19
aaa(lp3506
(lp3507
g3455
aI11032
aI0
aI0
aI19
aaa(lp3508
(lp3509
g3455
aI11560
aI0
aI0
aI20
aaa(lp3510
(lp3511
g3455
aI11638
aI0
aI0
aI20
aaa(lp3512
(lp3513
g3455
aI12160
aI0
aI0
aI20
aaa(lp3514
(lp3515
g3455
aI12246
aI0
aI0
aI20
aaa(lp3516
(lp3517
g3455
aI12760
aI0
aI0
aI20
aaa(lp3518
(lp3519
g3455
aI12846
aI0
aI0
aI20
aaa(lp3520
(lp3521
g3455
aI13360
aI0
aI0
aI20
aaa(lp3522
(lp3523
g3455
aI13454
aI0
aI0
aI20
aaa(lp3524
(lp3525
g3455
aI13960
aI0
aI0
aI20
aaa(lp3526
(lp3527
g3455
aI14054
aI0
aI0
aI20
aaa(lp3528
(lp3529
g3455
aI14560
aI0
aI0
aI20
aaa(lp3530
(lp3531
g3455
aI14654
aI0
aI0
aI20
aaa(lp3532
(lp3533
g3455
aI15160
aI0
aI0
aI20
aaa(lp3534
(lp3535
g3455
aI15254
aI0
aI0
aI20
aaa(lp3536
(lp3537
g3455
aI15760
aI0
aI0
aI20
aaa(lp3538
(lp3539
g3455
aI15858
aI0
aI0
aI20
aaa(lp3540
(lp3541
g3455
aI16360
aI0
aI0
aI20
aaa(lp3542
(lp3543
g3455
aI16462
aI0
aI0
aI20
aaa(lp3544
(lp3545
g3455
aI16960
aI0
aI0
aI20
aaa(lp3546
(lp3547
g3455
aI17066
aI0
aI0
aI20
aaa(lp3548
(lp3549
g3455
aI17560
aI0
aI0
aI20
aaa(lp3550
(lp3551
g3455
aI17668
aI0
aI0
aI20
aaa(lp3552
(lp3553
g3455
aI18160
aI0
aI0
aI20
aaa(lp3554
(lp3555
g3455
aI18272
aI0
aI0
aI20
aaa(lp3556
(lp3557
g3455
aI18760
aI0
aI0
aI20
aaa(lp3558
(lp3559
g3455
aI19360
aI0
aI0
aI20
aaa(lp3560
(lp3561
g3455
aI19960
aI0
aI0
aI20
aaa(lp3562
(lp3563
g3455
aI20560
aI0
aI0
aI22
aaa(lp3564
(lp3565
g3455
aI21175
aI0
aI0
aI22
aaa(lp3566
(lp3567
g3455
aI21765
aI0
aI0
aI22
aaa(lp3568
(lp3569
g3455
aI22360
aI0
aI0
aI22
aaa(lp3570
(lp3571
g3455
aI22960
aI0
aI0
aI22
aaa(lp3572
(lp3573
g3455
aI23560
aI0
aI0
aI22
aaa(lp3574
(lp3575
g3455
aI24160
aI0
aI0
aI22
aaa(lp3576
(lp3577
S'4cwlj0'
p3578
aI229
aI1
aI0
aI0
aaa(lp3579
(lp3580
g3578
aI825
aI1
aI0
aI1
aaa(lp3581
(lp3582
g3578
aI829
aI1
aI0
aI1
aaa(lp3583
(lp3584
g3578
aI1425
aI3
aI0
aI2
aaa(lp3585
(lp3586
g3578
aI1429
aI3
aI0
aI2
aaa(lp3587
(lp3588
g3578
aI2025
aI4
aI0
aI2
aaa(lp3589
(lp3590
g3578
aI2031
aI4
aI0
aI2
aaa(lp3591
(lp3592
g3578
aI2625
aI5
aI0
aI2
aaa(lp3593
(lp3594
g3578
aI2635
aI5
aI0
aI2
aaa(lp3595
(lp3596
g3578
aI3225
aI4
aI0
aI3
aaa(lp3597
(lp3598
g3578
aI3239
aI4
aI0
aI3
aaa(lp3599
(lp3600
g3578
aI3825
aI4
aI0
aI3
aaa(lp3601
(lp3602
g3578
aI3841
aI4
aI0
aI3
aaa(lp3603
(lp3604
g3578
aI4429
aI4
aI0
aI3
aaa(lp3605
(lp3606
g3578
aI4453
aI4
aI0
aI3
aaa(lp3607
(lp3608
g3578
aI5025
aI2
aI0
aI3
aaa(lp3609
(lp3610
g3578
aI5051
aI2
aI0
aI3
aaa(lp3611
(lp3612
g3578
aI5625
aI3
aI0
aI3
aaa(lp3613
(lp3614
g3578
aI5652
aI3
aI0
aI3
aaa(lp3615
(lp3616
g3578
aI6225
aI3
aI0
aI3
aaa(lp3617
(lp3618
g3578
aI6252
aI3
aI0
aI3
aaa(lp3619
(lp3620
g3578
aI9395
aI6
aI0
aI5
aaa(lp3621
(lp3622
g3578
aI9457
aI6
aI0
aI5
aaa(lp3623
(lp3624
g3578
aI9993
aI3
aI0
aI5
aaa(lp3625
(lp3626
g3578
aI10061
aI3
aI0
aI5
aaa(lp3627
(lp3628
g3578
aI10593
aI4
aI0
aI5
aaa(lp3629
(lp3630
g3578
aI10667
aI4
aI0
aI5
aaa(lp3631
(lp3632
g3578
aI11193
aI3
aI0
aI5
aaa(lp3633
(lp3634
g3578
aI11275
aI3
aI0
aI5
aaa(lp3635
(lp3636
g3578
aI11793
aI2
aI0
aI5
aaa(lp3637
(lp3638
g3578
aI11875
aI2
aI0
aI5
aaa(lp3639
(lp3640
g3578
aI12393
aI5
aI0
aI5
aaa(lp3641
(lp3642
g3578
aI12483
aI3
aI0
aI5
aaa(lp3643
(lp3644
g3578
aI12993
aI2
aI0
aI5
aaa(lp3645
(lp3646
g3578
aI13083
aI5
aI0
aI5
aaa(lp3647
(lp3648
g3578
aI13593
aI3
aI0
aI5
aaa(lp3649
(lp3650
g3578
aI13683
aI7
aI0
aI5
aaa(lp3651
(lp3652
g3578
aI14193
aI4
aI0
aI6
aaa(lp3653
(lp3654
g3578
aI14283
aI6
aI0
aI6
aaa(lp3655
(lp3656
g3578
aI14793
aI6
aI0
aI6
aaa(lp3657
(lp3658
g3578
aI14887
aI6
aI0
aI6
aaa(lp3659
(lp3660
g3578
aI15393
aI6
aI0
aI6
aaa(lp3661
(lp3662
g3578
aI15491
aI6
aI0
aI6
aaa(lp3663
(lp3664
g3578
aI15993
aI7
aI0
aI6
aaa(lp3665
(lp3666
g3578
aI16095
aI7
aI0
aI6
aaa(lp3667
(lp3668
g3578
aI16593
aI7
aI0
aI6
aaa(lp3669
(lp3670
g3578
aI16697
aI5
aI0
aI6
aaa(lp3671
(lp3672
g3578
aI17193
aI5
aI0
aI6
aaa(lp3673
(lp3674
g3578
aI17301
aI6
aI0
aI6
aaa(lp3675
(lp3676
g3578
aI17793
aI4
aI0
aI6
aaa(lp3677
(lp3678
g3578
aI18393
aI6
aI0
aI8
aaa(lp3679
(lp3680
g3578
aI18993
aI4
aI0
aI8
aaa(lp3681
(lp3682
g3578
aI19593
aI5
aI0
aI8
aaa(lp3683
(lp3684
g3578
aI20208
aI7
aI0
aI8
aaa(lp3685
(lp3686
g3578
aI20796
aI6
aI0
aI8
aaa(lp3687
(lp3688
g3578
aI21393
aI5
aI0
aI8
aaa(lp3689
(lp3690
g3578
aI21993
aI6
aI0
aI8
aaa(lp3691
(lp3692
g3578
aI22593
aI6
aI0
aI8
aaa(lp3693
(lp3694
g3578
aI23193
aI4
aI0
aI8
aaa(lp3695
(lp3696
S'4cwo75'
p3697
aI30
aI1
aI0
aI0
aaa(lp3698
(lp3699
g3697
aI628
aI3
aI0
aI2
aaa(lp3700
(lp3701
g3697
aI630
aI3
aI0
aI2
aaa(lp3702
(lp3703
g3697
aI1228
aI3
aI0
aI2
aaa(lp3704
(lp3705
g3697
aI1232
aI3
aI0
aI2
aaa(lp3706
(lp3707
g3697
aI1828
aI6
aI0
aI2
aaa(lp3708
(lp3709
g3697
aI1836
aI6
aI0
aI2
aaa(lp3710
(lp3711
g3697
aI2428
aI9
aI0
aI3
aaa(lp3712
(lp3713
g3697
aI2440
aI9
aI0
aI3
aaa(lp3714
(lp3715
g3697
aI3028
aI10
aI0
aI7
aaa(lp3716
(lp3717
g3697
aI3042
aI10
aI0
aI7
aaa(lp3718
(lp3719
g3697
aI3632
aI11
aI0
aI9
aaa(lp3720
(lp3721
g3697
aI3654
aI11
aI0
aI9
aaa(lp3722
(lp3723
g3697
aI4228
aI13
aI0
aI10
aaa(lp3724
(lp3725
g3697
aI4252
aI13
aI0
aI10
aaa(lp3726
(lp3727
g3697
aI4828
aI13
aI0
aI11
aaa(lp3728
(lp3729
g3697
aI4853
aI13
aI0
aI11
aaa(lp3730
(lp3731
g3697
aI5428
aI18
aI0
aI11
aaa(lp3732
(lp3733
g3697
aI5452
aI18
aI0
aI11
aaa(lp3734
(lp3735
g3697
aI8598
aI28
aI0
aI19
aaa(lp3736
(lp3737
g3697
aI8656
aI28
aI0
aI19
aaa(lp3738
(lp3739
g3697
aI9196
aI28
aI0
aI21
aaa(lp3740
(lp3741
g3697
aI9262
aI28
aI0
aI21
aaa(lp3742
(lp3743
g3697
aI9796
aI34
aI0
aI22
aaa(lp3744
(lp3745
g3697
aI9866
aI34
aI0
aI22
aaa(lp3746
(lp3747
g3697
aI10396
aI33
aI0
aI24
aaa(lp3748
(lp3749
g3697
aI10474
aI33
aI0
aI24
aaa(lp3750
(lp3751
g3697
aI10996
aI38
aI0
aI26
aaa(lp3752
(lp3753
g3697
aI11074
aI38
aI0
aI26
aaa(lp3754
(lp3755
g3697
aI11596
aI37
aI0
aI27
aaa(lp3756
(lp3757
g3697
aI11682
aI37
aI0
aI27
aaa(lp3758
(lp3759
g3697
aI12196
aI40
aI0
aI29
aaa(lp3760
(lp3761
g3697
aI12282
aI40
aI0
aI29
aaa(lp3762
(lp3763
g3697
aI12796
aI43
aI0
aI31
aaa(lp3764
(lp3765
g3697
aI12882
aI43
aI0
aI31
aaa(lp3766
(lp3767
g3697
aI13396
aI46
aI0
aI33
aaa(lp3768
(lp3769
g3697
aI13482
aI46
aI0
aI33
aaa(lp3770
(lp3771
g3697
aI13996
aI49
aI0
aI35
aaa(lp3772
(lp3773
g3697
aI14086
aI45
aI0
aI35
aaa(lp3774
(lp3775
g3697
aI14596
aI44
aI0
aI35
aaa(lp3776
(lp3777
g3697
aI14690
aI48
aI0
aI35
aaa(lp3778
(lp3779
g3697
aI15196
aI49
aI0
aI37
aaa(lp3780
(lp3781
g3697
aI15294
aI51
aI0
aI37
aaa(lp3782
(lp3783
g3697
aI15796
aI51
aI0
aI40
aaa(lp3784
(lp3785
g3697
aI15896
aI50
aI0
aI41
aaa(lp3786
(lp3787
g3697
aI16396
aI49
aI0
aI42
aaa(lp3788
(lp3789
g3697
aI16500
aI52
aI0
aI42
aaa(lp3790
(lp3791
g3697
aI16996
aI48
aI0
aI42
aaa(lp3792
(lp3793
g3697
aI17596
aI50
aI0
aI42
aaa(lp3794
(lp3795
g3697
aI18196
aI48
aI0
aI44
aaa(lp3796
(lp3797
g3697
aI18796
aI57
aI0
aI47
aaa(lp3798
(lp3799
g3697
aI19412
aI60
aI0
aI47
aaa(lp3800
(lp3801
g3697
aI19999
aI62
aI0
aI49
aaa(lp3802
(lp3803
g3697
aI20596
aI68
aI0
aI49
aaa(lp3804
(lp3805
g3697
aI21196
aI64
aI0
aI51
aaa(lp3806
(lp3807
g3697
aI21796
aI63
aI0
aI53
aaa(lp3808
(lp3809
g3697
aI22396
aI65
aI0
aI53
aaa(lp3810
(lp3811
S'4cws3e'
p3812
aI123
aI0
aI0
aI0
aaa(lp3813
(lp3814
g3812
aI721
aI2
aI0
aI2
aaa(lp3815
(lp3816
g3812
aI727
aI2
aI0
aI2
aaa(lp3817
(lp3818
g3812
aI1321
aI3
aI0
aI3
aaa(lp3819
(lp3820
g3812
aI1331
aI3
aI0
aI3
aaa(lp3821
(lp3822
g3812
aI1921
aI2
aI0
aI3
aaa(lp3823
(lp3824
g3812
aI1933
aI2
aI0
aI3
aaa(lp3825
(lp3826
g3812
aI2525
aI4
aI0
aI4
aaa(lp3827
(lp3828
g3812
aI2545
aI4
aI0
aI4
aaa(lp3829
(lp3830
g3812
aI3121
aI2
aI0
aI4
aaa(lp3831
(lp3832
g3812
aI3143
aI2
aI0
aI4
aaa(lp3833
(lp3834
g3812
aI3721
aI3
aI0
aI4
aaa(lp3835
(lp3836
g3812
aI3744
aI3
aI0
aI4
aaa(lp3837
(lp3838
g3812
aI4321
aI1
aI0
aI4
aaa(lp3839
(lp3840
g3812
aI4343
aI1
aI0
aI4
aaa(lp3841
(lp3842
g3812
aI7491
aI3
aI0
aI5
aaa(lp3843
(lp3844
g3812
aI7545
aI3
aI0
aI5
aaa(lp3845
(lp3846
g3812
aI8089
aI0
aI0
aI5
aaa(lp3847
(lp3848
g3812
aI8149
aI0
aI0
aI5
aaa(lp3849
(lp3850
g3812
aI8689
aI1
aI0
aI5
aaa(lp3851
(lp3852
g3812
aI8755
aI1
aI0
aI5
aaa(lp3853
(lp3854
g3812
aI9289
aI3
aI0
aI5
aaa(lp3855
(lp3856
g3812
aI9363
aI3
aI0
aI5
aaa(lp3857
(lp3858
g3812
aI9889
aI1
aI0
aI5
aaa(lp3859
(lp3860
g3812
aI9963
aI1
aI0
aI5
aaa(lp3861
(lp3862
g3812
aI10489
aI2
aI0
aI5
aaa(lp3863
(lp3864
g3812
aI10571
aI2
aI0
aI5
aaa(lp3865
(lp3866
g3812
aI11089
aI2
aI0
aI5
aaa(lp3867
(lp3868
g3812
aI11171
aI2
aI0
aI5
aaa(lp3869
(lp3870
g3812
aI11689
aI6
aI0
aI5
aaa(lp3871
(lp3872
g3812
aI11771
aI6
aI0
aI5
aaa(lp3873
(lp3874
g3812
aI12289
aI5
aI0
aI6
aaa(lp3875
(lp3876
g3812
aI12371
aI5
aI0
aI6
aaa(lp3877
(lp3878
g3812
aI12889
aI4
aI0
aI6
aaa(lp3879
(lp3880
g3812
aI12975
aI4
aI0
aI6
aaa(lp3881
(lp3882
g3812
aI13489
aI6
aI0
aI6
aaa(lp3883
(lp3884
g3812
aI13579
aI6
aI0
aI6
aaa(lp3885
(lp3886
g3812
aI14089
aI6
aI0
aI6
aaa(lp3887
(lp3888
g3812
aI14183
aI6
aI0
aI6
aaa(lp3889
(lp3890
g3812
aI14689
aI6
aI0
aI6
aaa(lp3891
(lp3892
g3812
aI14785
aI5
aI0
aI6
aaa(lp3893
(lp3894
g3812
aI15289
aI4
aI0
aI6
aaa(lp3895
(lp3896
g3812
aI15389
aI6
aI0
aI6
aaa(lp3897
(lp3898
g3812
aI15889
aI7
aI0
aI6
aaa(lp3899
(lp3900
g3812
aI15999
aI7
aI0
aI6
aaa(lp3901
(lp3902
g3812
aI16489
aI6
aI0
aI6
aaa(lp3903
(lp3904
g3812
aI17089
aI9
aI0
aI6
aaa(lp3905
(lp3906
g3812
aI17689
aI9
aI0
aI6
aaa(lp3907
(lp3908
g3812
aI18306
aI7
aI0
aI6
aaa(lp3909
(lp3910
g3812
aI18892
aI7
aI0
aI6
aaa(lp3911
(lp3912
g3812
aI19489
aI9
aI0
aI6
aaa(lp3913
(lp3914
g3812
aI20089
aI10
aI0
aI6
aaa(lp3915
(lp3916
g3812
aI20689
aI9
aI0
aI6
aaa(lp3917
(lp3918
g3812
aI21289
aI9
aI0
aI6
aaa(lp3919
(lp3920
S'4cwssl'
p3921
aI528
aI10
aI0
aI3
aaa(lp3922
(lp3923
g3921
aI1124
aI16
aI0
aI8
aaa(lp3924
(lp3925
g3921
aI1132
aI16
aI0
aI8
aaa(lp3926
(lp3927
g3921
aI1724
aI17
aI0
aI14
aaa(lp3928
(lp3929
g3921
aI1734
aI17
aI0
aI14
aaa(lp3930
(lp3931
g3921
aI2328
aI20
aI0
aI20
aaa(lp3932
(lp3933
g3921
aI2346
aI20
aI0
aI20
aaa(lp3934
(lp3935
g3921
aI2924
aI22
aI0
aI32
aaa(lp3936
(lp3937
g3921
aI2944
aI22
aI0
aI32
aaa(lp3938
(lp3939
g3921
aI3524
aI25
aI0
aI40
aaa(lp3940
(lp3941
g3921
aI3545
aI25
aI0
aI40
aaa(lp3942
(lp3943
g3921
aI4125
aI25
aI0
aI54
aaa(lp3944
(lp3945
g3921
aI4144
aI25
aI0
aI54
aaa(lp3946
(lp3947
g3921
aI7295
aI45
aI0
aI86
aaa(lp3948
(lp3949
g3921
aI7344
aI45
aI0
aI86
aaa(lp3950
(lp3951
g3921
aI7892
aI50
aI0
aI89
aaa(lp3952
(lp3953
g3921
aI7948
aI50
aI0
aI89
aaa(lp3954
(lp3955
g3921
aI8493
aI50
aI0
aI105
aaa(lp3956
(lp3957
g3921
aI8554
aI50
aI0
aI105
aaa(lp3958
(lp3959
g3921
aI9092
aI52
aI0
aI111
aaa(lp3960
(lp3961
g3921
aI9162
aI52
aI0
aI111
aaa(lp3962
(lp3963
g3921
aI9693
aI57
aI0
aI119
aaa(lp3964
(lp3965
g3921
aI9762
aI57
aI0
aI119
aaa(lp3966
(lp3967
g3921
aI10292
aI63
aI0
aI123
aaa(lp3968
(lp3969
g3921
aI10370
aI63
aI0
aI123
aaa(lp3970
(lp3971
g3921
aI10893
aI65
aI0
aI129
aaa(lp3972
(lp3973
g3921
aI10970
aI65
aI0
aI129
aaa(lp3974
(lp3975
g3921
aI11495
aI68
aI0
aI138
aaa(lp3976
(lp3977
g3921
aI11570
aI68
aI0
aI138
aaa(lp3978
(lp3979
g3921
aI12093
aI70
aI0
aI146
aaa(lp3980
(lp3981
g3921
aI12170
aI70
aI0
aI146
aaa(lp3982
(lp3983
g3921
aI12693
aI75
aI0
aI151
aaa(lp3984
(lp3985
g3921
aI12774
aI75
aI0
aI151
aaa(lp3986
(lp3987
g3921
aI13293
aI77
aI0
aI154
aaa(lp3988
(lp3989
g3921
aI13378
aI77
aI0
aI154
aaa(lp3990
(lp3991
g3921
aI13893
aI84
aI0
aI164
aaa(lp3992
(lp3993
g3921
aI13982
aI84
aI0
aI164
aaa(lp3994
(lp3995
g3921
aI14493
aI82
aI0
aI174
aaa(lp3996
(lp3997
g3921
aI14585
aI84
aI0
aI175
aaa(lp3998
(lp3999
g3921
aI15093
aI84
aI0
aI181
aaa(lp4000
(lp4001
g3921
aI15189
aI86
aI0
aI181
aaa(lp4002
(lp4003
g3921
aI15693
aI89
aI0
aI185
aaa(lp4004
(lp4005
g3921
aI15799
aI88
aI0
aI186
aaa(lp4006
(lp4007
g3921
aI16293
aI90
aI0
aI192
aaa(lp4008
(lp4009
g3921
aI16893
aI93
aI0
aI194
aaa(lp4010
(lp4011
g3921
aI17493
aI97
aI0
aI196
aaa(lp4012
(lp4013
g3921
aI18110
aI102
aI0
aI197
aaa(lp4014
(lp4015
g3921
aI18696
aI102
aI0
aI200
aaa(lp4016
(lp4017
g3921
aI19293
aI110
aI0
aI206
aaa(lp4018
(lp4019
g3921
aI19893
aI110
aI0
aI208
aaa(lp4020
(lp4021
g3921
aI20493
aI110
aI0
aI211
aaa(lp4022
(lp4023
g3921
aI21093
aI110
aI0
aI212
aaa(lp4024
(lp4025
S'4cwugp'
p4026
aI53
aI1
aI0
aI1
aaa(lp4027
(lp4028
g4026
aI658
aI0
aI0
aI2
aaa(lp4029
(lp4030
g4026
aI659
aI0
aI0
aI2
aaa(lp4031
(lp4032
g4026
aI1253
aI0
aI0
aI2
aaa(lp4033
(lp4034
g4026
aI1261
aI0
aI0
aI2
aaa(lp4035
(lp4036
g4026
aI1857
aI0
aI0
aI3
aaa(lp4037
(lp4038
g4026
aI1873
aI0
aI0
aI3
aaa(lp4039
(lp4040
g4026
aI2453
aI0
aI0
aI3
aaa(lp4041
(lp4042
g4026
aI3053
aI0
aI0
aI3
aaa(lp4043
(lp4044
g4026
aI3653
aI0
aI0
aI3
aaa(lp4045
(lp4046
g4026
aI6823
aI0
aI0
aI3
aaa(lp4047
(lp4048
g4026
aI7421
aI0
aI0
aI3
aaa(lp4049
(lp4050
g4026
aI8021
aI0
aI0
aI3
aaa(lp4051
(lp4052
g4026
aI8621
aI0
aI0
aI3
aaa(lp4053
(lp4054
g4026
aI9221
aI0
aI0
aI3
aaa(lp4055
(lp4056
g4026
aI9821
aI0
aI0
aI3
aaa(lp4057
(lp4058
g4026
aI10421
aI0
aI0
aI3
aaa(lp4059
(lp4060
g4026
aI11023
aI0
aI0
aI3
aaa(lp4061
(lp4062
g4026
aI11621
aI0
aI0
aI3
aaa(lp4063
(lp4064
g4026
aI12221
aI0
aI0
aI3
aaa(lp4065
(lp4066
g4026
aI12821
aI0
aI0
aI3
aaa(lp4067
(lp4068
g4026
aI13421
aI0
aI0
aI3
aaa(lp4069
(lp4070
g4026
aI14021
aI0
aI0
aI3
aaa(lp4071
(lp4072
g4026
aI14621
aI0
aI0
aI3
aaa(lp4073
(lp4074
g4026
aI15221
aI0
aI0
aI3
aaa(lp4075
(lp4076
g4026
aI15821
aI0
aI0
aI3
aaa(lp4077
(lp4078
g4026
aI16421
aI0
aI0
aI3
aaa(lp4079
(lp4080
g4026
aI17021
aI0
aI0
aI3
aaa(lp4081
(lp4082
g4026
aI17638
aI0
aI0
aI3
aaa(lp4083
(lp4084
g4026
aI18224
aI0
aI0
aI3
aaa(lp4085
(lp4086
g4026
aI18821
aI0
aI0
aI3
aaa(lp4087
(lp4088
g4026
aI19421
aI0
aI0
aI3
aaa(lp4089
(lp4090
g4026
aI20021
aI0
aI0
aI3
aaa(lp4091
(lp4092
g4026
aI20621
aI0
aI0
aI3
aaa(lp4093
(lp4094
S'4cwwye'
p4095
aI548
aI0
aI0
aI3
aaa(lp4096
(lp4097
g4095
aI1146
aI0
aI0
aI6
aaa(lp4098
(lp4099
g4095
aI1160
aI0
aI0
aI6
aaa(lp4100
(lp4101
g4095
aI1742
aI0
aI0
aI7
aaa(lp4102
(lp4103
g4095
aI1758
aI0
aI0
aI7
aaa(lp4104
(lp4105
g4095
aI2342
aI0
aI0
aI9
aaa(lp4106
(lp4107
g4095
aI2358
aI0
aI0
aI9
aaa(lp4108
(lp4109
g4095
aI2942
aI0
aI0
aI9
aaa(lp4110
(lp4111
g4095
aI2958
aI0
aI0
aI9
aaa(lp4112
(lp4113
g4095
aI6112
aI0
aI0
aI13
aaa(lp4114
(lp4115
g4095
aI6710
aI0
aI0
aI13
aaa(lp4116
(lp4117
g4095
aI7310
aI0
aI0
aI13
aaa(lp4118
(lp4119
g4095
aI7910
aI0
aI0
aI13
aaa(lp4120
(lp4121
g4095
aI8510
aI0
aI0
aI13
aaa(lp4122
(lp4123
g4095
aI9110
aI0
aI0
aI13
aaa(lp4124
(lp4125
g4095
aI9710
aI0
aI0
aI13
aaa(lp4126
(lp4127
g4095
aI10312
aI0
aI0
aI13
aaa(lp4128
(lp4129
g4095
aI10910
aI0
aI0
aI13
aaa(lp4130
(lp4131
g4095
aI11510
aI0
aI0
aI13
aaa(lp4132
(lp4133
g4095
aI12110
aI0
aI0
aI13
aaa(lp4134
(lp4135
g4095
aI12710
aI0
aI0
aI13
aaa(lp4136
(lp4137
g4095
aI13310
aI0
aI0
aI13
aaa(lp4138
(lp4139
g4095
aI13910
aI0
aI0
aI13
aaa(lp4140
(lp4141
g4095
aI14510
aI0
aI0
aI13
aaa(lp4142
(lp4143
g4095
aI15110
aI0
aI0
aI13
aaa(lp4144
(lp4145
g4095
aI15710
aI0
aI0
aI13
aaa(lp4146
(lp4147
g4095
aI16310
aI0
aI0
aI13
aaa(lp4148
(lp4149
g4095
aI16927
aI0
aI0
aI13
aaa(lp4150
(lp4151
g4095
aI17513
aI0
aI0
aI13
aaa(lp4152
(lp4153
g4095
aI18110
aI0
aI0
aI13
aaa(lp4154
(lp4155
g4095
aI18710
aI0
aI0
aI13
aaa(lp4156
(lp4157
g4095
aI19310
aI0
aI0
aI13
aaa(lp4158
(lp4159
g4095
aI19910
aI0
aI0
aI13
aaa(lp4160
(lp4161
S'4cwxth'
p4162
aI297
aI1
aI0
aI0
aaa(lp4163
(lp4164
g4162
aI899
aI3
aI0
aI2
aaa(lp4165
(lp4166
g4162
aI911
aI3
aI0
aI2
aaa(lp4167
(lp4168
g4162
aI1495
aI3
aI0
aI2
aaa(lp4169
(lp4170
g4162
aI1509
aI3
aI0
aI2
aaa(lp4171
(lp4172
g4162
aI2095
aI4
aI0
aI3
aaa(lp4173
(lp4174
g4162
aI2109
aI4
aI0
aI3
aaa(lp4175
(lp4176
g4162
aI2695
aI3
aI0
aI5
aaa(lp4177
(lp4178
g4162
aI2709
aI3
aI0
aI5
aaa(lp4179
(lp4180
g4162
aI5865
aI4
aI0
aI5
aaa(lp4181
(lp4182
g4162
aI5907
aI4
aI0
aI5
aaa(lp4183
(lp4184
g4162
aI6463
aI5
aI0
aI5
aaa(lp4185
(lp4186
g4162
aI6511
aI5
aI0
aI5
aaa(lp4187
(lp4188
g4162
aI7063
aI4
aI0
aI5
aaa(lp4189
(lp4190
g4162
aI7117
aI4
aI0
aI5
aaa(lp4191
(lp4192
g4162
aI7663
aI3
aI0
aI5
aaa(lp4193
(lp4194
g4162
aI7725
aI3
aI0
aI5
aaa(lp4195
(lp4196
g4162
aI8263
aI4
aI0
aI5
aaa(lp4197
(lp4198
g4162
aI8325
aI4
aI0
aI5
aaa(lp4199
(lp4200
g4162
aI8863
aI5
aI0
aI5
aaa(lp4201
(lp4202
g4162
aI8933
aI5
aI0
aI5
aaa(lp4203
(lp4204
g4162
aI9463
aI6
aI0
aI5
aaa(lp4205
(lp4206
g4162
aI9533
aI6
aI0
aI5
aaa(lp4207
(lp4208
g4162
aI10065
aI9
aI0
aI5
aaa(lp4209
(lp4210
g4162
aI10133
aI9
aI0
aI5
aaa(lp4211
(lp4212
g4162
aI10663
aI9
aI0
aI6
aaa(lp4213
(lp4214
g4162
aI10733
aI9
aI0
aI6
aaa(lp4215
(lp4216
g4162
aI11263
aI7
aI0
aI8
aaa(lp4217
(lp4218
g4162
aI11337
aI7
aI0
aI8
aaa(lp4219
(lp4220
g4162
aI11863
aI10
aI0
aI8
aaa(lp4221
(lp4222
g4162
aI11941
aI10
aI0
aI8
aaa(lp4223
(lp4224
g4162
aI12463
aI10
aI0
aI8
aaa(lp4225
(lp4226
g4162
aI12545
aI10
aI0
aI8
aaa(lp4227
(lp4228
g4162
aI13063
aI10
aI0
aI9
aaa(lp4229
(lp4230
g4162
aI13147
aI10
aI0
aI9
aaa(lp4231
(lp4232
g4162
aI13663
aI6
aI0
aI10
aaa(lp4233
(lp4234
g4162
aI13751
aI6
aI0
aI10
aaa(lp4235
(lp4236
g4162
aI14263
aI6
aI0
aI10
aaa(lp4237
(lp4238
g4162
aI14361
aI7
aI0
aI10
aaa(lp4239
(lp4240
g4162
aI14863
aI9
aI0
aI10
aaa(lp4241
(lp4242
g4162
aI15463
aI8
aI0
aI10
aaa(lp4243
(lp4244
g4162
aI16063
aI8
aI0
aI10
aaa(lp4245
(lp4246
g4162
aI16680
aI8
aI0
aI10
aaa(lp4247
(lp4248
g4162
aI17266
aI11
aI0
aI10
aaa(lp4249
(lp4250
g4162
aI17863
aI9
aI0
aI10
aaa(lp4251
(lp4252
g4162
aI18463
aI10
aI0
aI10
aaa(lp4253
(lp4254
g4162
aI19063
aI9
aI0
aI10
aaa(lp4255
(lp4256
g4162
aI19663
aI9
aI0
aI10
aaa(lp4257
(lp4258
S'4cwyh0'
p4259
aI106
aI1
aI0
aI0
aaa(lp4260
(lp4261
g4259
aI712
aI0
aI0
aI2
aaa(lp4262
(lp4263
g4259
aI1308
aI0
aI0
aI2
aaa(lp4264
(lp4265
g4259
aI1908
aI0
aI0
aI2
aaa(lp4266
(lp4267
g4259
aI2508
aI0
aI0
aI2
aaa(lp4268
(lp4269
g4259
aI5678
aI0
aI0
aI2
aaa(lp4270
(lp4271
g4259
aI6276
aI0
aI0
aI2
aaa(lp4272
(lp4273
g4259
aI6876
aI0
aI0
aI2
aaa(lp4274
(lp4275
g4259
aI7476
aI0
aI0
aI2
aaa(lp4276
(lp4277
g4259
aI8076
aI0
aI0
aI2
aaa(lp4278
(lp4279
g4259
aI8676
aI0
aI0
aI2
aaa(lp4280
(lp4281
g4259
aI9276
aI0
aI0
aI2
aaa(lp4282
(lp4283
g4259
aI9878
aI0
aI0
aI2
aaa(lp4284
(lp4285
g4259
aI10476
aI0
aI0
aI2
aaa(lp4286
(lp4287
g4259
aI11076
aI0
aI0
aI2
aaa(lp4288
(lp4289
g4259
aI11676
aI0
aI0
aI2
aaa(lp4290
(lp4291
g4259
aI12276
aI0
aI0
aI2
aaa(lp4292
(lp4293
g4259
aI12876
aI0
aI0
aI2
aaa(lp4294
(lp4295
g4259
aI13476
aI0
aI0
aI2
aaa(lp4296
(lp4297
g4259
aI14076
aI0
aI0
aI2
aaa(lp4298
(lp4299
g4259
aI14676
aI0
aI0
aI2
aaa(lp4300
(lp4301
g4259
aI15276
aI0
aI0
aI2
aaa(lp4302
(lp4303
g4259
aI15876
aI0
aI0
aI2
aaa(lp4304
(lp4305
g4259
aI16493
aI0
aI0
aI2
aaa(lp4306
(lp4307
g4259
aI17079
aI0
aI0
aI2
aaa(lp4308
(lp4309
g4259
aI17676
aI0
aI0
aI2
aaa(lp4310
(lp4311
g4259
aI18276
aI0
aI0
aI2
aaa(lp4312
(lp4313
g4259
aI18876
aI0
aI0
aI2
aaa(lp4314
(lp4315
g4259
aI19476
aI0
aI0
aI2
aaa(lp4316
(lp4317
S'4cwyzt'
p4318
aI579
aI0
aI0
aI0
aaa(lp4319
(lp4320
g4318
aI1167
aI0
aI0
aI0
aaa(lp4321
(lp4322
g4318
aI1177
aI0
aI0
aI0
aaa(lp4323
(lp4324
g4318
aI1767
aI0
aI0
aI0
aaa(lp4325
(lp4326
g4318
aI1777
aI0
aI0
aI0
aaa(lp4327
(lp4328
g4318
aI2367
aI0
aI0
aI0
aaa(lp4329
(lp4330
g4318
aI2377
aI0
aI0
aI0
aaa(lp4331
(lp4332
g4318
aI5537
aI0
aI0
aI0
aaa(lp4333
(lp4334
g4318
aI5573
aI0
aI0
aI0
aaa(lp4335
(lp4336
g4318
aI6135
aI3
aI0
aI0
aaa(lp4337
(lp4338
g4318
aI6177
aI3
aI0
aI0
aaa(lp4339
(lp4340
g4318
aI6735
aI1
aI0
aI0
aaa(lp4341
(lp4342
g4318
aI6783
aI1
aI0
aI0
aaa(lp4343
(lp4344
g4318
aI7335
aI3
aI0
aI0
aaa(lp4345
(lp4346
g4318
aI7391
aI3
aI0
aI0
aaa(lp4347
(lp4348
g4318
aI7935
aI3
aI0
aI0
aaa(lp4349
(lp4350
g4318
aI7991
aI3
aI0
aI0
aaa(lp4351
(lp4352
g4318
aI8535
aI1
aI0
aI0
aaa(lp4353
(lp4354
g4318
aI8599
aI1
aI0
aI0
aaa(lp4355
(lp4356
g4318
aI9135
aI2
aI0
aI1
aaa(lp4357
(lp4358
g4318
aI9199
aI2
aI0
aI1
aaa(lp4359
(lp4360
g4318
aI9737
aI4
aI0
aI1
aaa(lp4361
(lp4362
g4318
aI10335
aI4
aI0
aI1
aaa(lp4363
(lp4364
g4318
aI10935
aI3
aI0
aI1
aaa(lp4365
(lp4366
g4318
aI11535
aI5
aI0
aI1
aaa(lp4367
(lp4368
g4318
aI12135
aI3
aI0
aI1
aaa(lp4369
(lp4370
g4318
aI12735
aI4
aI0
aI1
aaa(lp4371
(lp4372
g4318
aI13335
aI3
aI0
aI1
aaa(lp4373
(lp4374
g4318
aI13935
aI2
aI0
aI1
aaa(lp4375
(lp4376
g4318
aI14535
aI3
aI0
aI1
aaa(lp4377
(lp4378
g4318
aI15135
aI2
aI0
aI1
aaa(lp4379
(lp4380
g4318
aI15735
aI6
aI0
aI1
aaa(lp4381
(lp4382
g4318
aI16352
aI3
aI0
aI1
aaa(lp4383
(lp4384
g4318
aI16938
aI4
aI0
aI1
aaa(lp4385
(lp4386
g4318
aI17535
aI5
aI0
aI1
aaa(lp4387
(lp4388
g4318
aI18135
aI5
aI0
aI1
aaa(lp4389
(lp4390
g4318
aI18735
aI5
aI0
aI1
aaa(lp4391
(lp4392
g4318
aI19335
aI4
aI0
aI1
aaa(lp4393
(lp4394
S'4cwz5e'
p4395
aI530
aI2
aI0
aI1
aaa(lp4396
(lp4397
g4395
aI1123
aI3
aI0
aI1
aaa(lp4398
(lp4399
g4395
aI1131
aI3
aI0
aI1
aaa(lp4400
(lp4401
g4395
aI1723
aI5
aI0
aI2
aaa(lp4402
(lp4403
g4395
aI1731
aI5
aI0
aI2
aaa(lp4404
(lp4405
g4395
aI2323
aI4
aI0
aI3
aaa(lp4406
(lp4407
g4395
aI2331
aI4
aI0
aI3
aaa(lp4408
(lp4409
g4395
aI5493
aI8
aI0
aI5
aaa(lp4410
(lp4411
g4395
aI5525
aI8
aI0
aI5
aaa(lp4412
(lp4413
g4395
aI6091
aI7
aI0
aI5
aaa(lp4414
(lp4415
g4395
aI6129
aI7
aI0
aI5
aaa(lp4416
(lp4417
g4395
aI6691
aI8
aI0
aI5
aaa(lp4418
(lp4419
g4395
aI6735
aI8
aI0
aI5
aaa(lp4420
(lp4421
g4395
aI7291
aI9
aI0
aI5
aaa(lp4422
(lp4423
g4395
aI7343
aI9
aI0
aI5
aaa(lp4424
(lp4425
g4395
aI7891
aI11
aI0
aI5
aaa(lp4426
(lp4427
g4395
aI7943
aI11
aI0
aI5
aaa(lp4428
(lp4429
g4395
aI8491
aI11
aI0
aI5
aaa(lp4430
(lp4431
g4395
aI8551
aI11
aI0
aI5
aaa(lp4432
(lp4433
g4395
aI9091
aI13
aI0
aI5
aaa(lp4434
(lp4435
g4395
aI9151
aI13
aI0
aI5
aaa(lp4436
(lp4437
g4395
aI9693
aI12
aI0
aI5
aaa(lp4438
(lp4439
g4395
aI9753
aI12
aI0
aI5
aaa(lp4440
(lp4441
g4395
aI10291
aI15
aI0
aI5
aaa(lp4442
(lp4443
g4395
aI10353
aI15
aI0
aI5
aaa(lp4444
(lp4445
g4395
aI10891
aI15
aI0
aI5
aaa(lp4446
(lp4447
g4395
aI10957
aI15
aI0
aI5
aaa(lp4448
(lp4449
g4395
aI11491
aI16
aI0
aI5
aaa(lp4450
(lp4451
g4395
aI11561
aI16
aI0
aI5
aaa(lp4452
(lp4453
g4395
aI12091
aI19
aI0
aI5
aaa(lp4454
(lp4455
g4395
aI12165
aI19
aI0
aI5
aaa(lp4456
(lp4457
g4395
aI12691
aI18
aI0
aI7
aaa(lp4458
(lp4459
g4395
aI12767
aI18
aI0
aI7
aaa(lp4460
(lp4461
g4395
aI13291
aI23
aI0
aI8
aaa(lp4462
(lp4463
g4395
aI13371
aI23
aI0
aI8
aaa(lp4464
(lp4465
g4395
aI13891
aI24
aI0
aI8
aaa(lp4466
(lp4467
g4395
aI13981
aI23
aI0
aI8
aaa(lp4468
(lp4469
g4395
aI14491
aI25
aI0
aI8
aaa(lp4470
(lp4471
g4395
aI14593
aI25
aI0
aI8
aaa(lp4472
(lp4473
g4395
aI15091
aI29
aI0
aI8
aaa(lp4474
(lp4475
g4395
aI15193
aI28
aI0
aI8
aaa(lp4476
(lp4477
g4395
aI15691
aI31
aI0
aI9
aaa(lp4478
(lp4479
g4395
aI16308
aI35
aI0
aI11
aaa(lp4480
(lp4481
g4395
aI16894
aI35
aI0
aI11
aaa(lp4482
(lp4483
g4395
aI17491
aI33
aI0
aI13
aaa(lp4484
(lp4485
g4395
aI18091
aI39
aI0
aI13
aaa(lp4486
(lp4487
g4395
aI18691
aI35
aI0
aI14
aaa(lp4488
(lp4489
g4395
aI19291
aI34
aI0
aI14
aaa(lp4490
(lp4491
S'4cwz5g'
p4492
aI527
aI0
aI0
aI2
aaa(lp4493
(lp4494
g4492
aI1124
aI0
aI0
aI4
aaa(lp4495
(lp4496
g4492
aI1130
aI0
aI0
aI4
aaa(lp4497
(lp4498
g4492
aI1724
aI0
aI0
aI4
aaa(lp4499
(lp4500
g4492
aI1730
aI0
aI0
aI4
aaa(lp4501
(lp4502
g4492
aI2324
aI0
aI0
aI4
aaa(lp4503
(lp4504
g4492
aI2330
aI0
aI0
aI4
aaa(lp4505
(lp4506
g4492
aI5494
aI0
aI0
aI5
aaa(lp4507
(lp4508
g4492
aI6092
aI0
aI0
aI5
aaa(lp4509
(lp4510
g4492
aI6692
aI0
aI0
aI5
aaa(lp4511
(lp4512
g4492
aI7292
aI0
aI0
aI5
aaa(lp4513
(lp4514
g4492
aI7892
aI0
aI0
aI5
aaa(lp4515
(lp4516
g4492
aI8492
aI0
aI0
aI5
aaa(lp4517
(lp4518
g4492
aI9092
aI0
aI0
aI5
aaa(lp4519
(lp4520
g4492
aI9694
aI0
aI0
aI5
aaa(lp4521
(lp4522
g4492
aI10292
aI0
aI0
aI5
aaa(lp4523
(lp4524
g4492
aI10892
aI0
aI0
aI5
aaa(lp4525
(lp4526
g4492
aI11492
aI0
aI0
aI5
aaa(lp4527
(lp4528
g4492
aI12092
aI0
aI0
aI5
aaa(lp4529
(lp4530
g4492
aI12692
aI0
aI0
aI5
aaa(lp4531
(lp4532
g4492
aI13292
aI0
aI0
aI5
aaa(lp4533
(lp4534
g4492
aI13892
aI0
aI0
aI5
aaa(lp4535
(lp4536
g4492
aI14492
aI0
aI0
aI5
aaa(lp4537
(lp4538
g4492
aI15092
aI0
aI0
aI5
aaa(lp4539
(lp4540
g4492
aI15692
aI0
aI0
aI5
aaa(lp4541
(lp4542
g4492
aI16309
aI0
aI0
aI5
aaa(lp4543
(lp4544
g4492
aI16895
aI0
aI0
aI5
aaa(lp4545
(lp4546
g4492
aI17492
aI0
aI0
aI5
aaa(lp4547
(lp4548
g4492
aI18092
aI0
aI0
aI5
aaa(lp4549
(lp4550
g4492
aI18692
aI0
aI0
aI5
aaa(lp4551
(lp4552
g4492
aI19292
aI0
aI0
aI5
aaa(lp4553
(lp4554
S'4cx0m8'
p4555
aI88
aI0
aI0
aI0
aaa(lp4556
(lp4557
g4555
aI688
aI1
aI0
aI2
aaa(lp4558
(lp4559
g4555
aI692
aI1
aI0
aI2
aaa(lp4560
(lp4561
g4555
aI1288
aI2
aI0
aI3
aaa(lp4562
(lp4563
g4555
aI1292
aI2
aI0
aI3
aaa(lp4564
(lp4565
g4555
aI1888
aI4
aI0
aI3
aaa(lp4566
(lp4567
g4555
aI1892
aI4
aI0
aI3
aaa(lp4568
(lp4569
g4555
aI5058
aI19
aI0
aI9
aaa(lp4570
(lp4571
g4555
aI5084
aI19
aI0
aI9
aaa(lp4572
(lp4573
g4555
aI5656
aI19
aI0
aI9
aaa(lp4574
(lp4575
g4555
aI5688
aI19
aI0
aI9
aaa(lp4576
(lp4577
g4555
aI6256
aI18
aI0
aI9
aaa(lp4578
(lp4579
g4555
aI6294
aI18
aI0
aI9
aaa(lp4580
(lp4581
g4555
aI6856
aI17
aI0
aI9
aaa(lp4582
(lp4583
g4555
aI6902
aI17
aI0
aI9
aaa(lp4584
(lp4585
g4555
aI7456
aI22
aI0
aI9
aaa(lp4586
(lp4587
g4555
aI7502
aI22
aI0
aI9
aaa(lp4588
(lp4589
g4555
aI8056
aI23
aI0
aI9
aaa(lp4590
(lp4591
g4555
aI8110
aI23
aI0
aI9
aaa(lp4592
(lp4593
g4555
aI8656
aI25
aI0
aI10
aaa(lp4594
(lp4595
g4555
aI8710
aI25
aI0
aI10
aaa(lp4596
(lp4597
g4555
aI9258
aI26
aI0
aI11
aaa(lp4598
(lp4599
g4555
aI9312
aI26
aI0
aI11
aaa(lp4600
(lp4601
g4555
aI9856
aI34
aI0
aI13
aaa(lp4602
(lp4603
g4555
aI9912
aI34
aI0
aI13
aaa(lp4604
(lp4605
g4555
aI10456
aI31
aI0
aI13
aaa(lp4606
(lp4607
g4555
aI10516
aI31
aI0
aI13
aaa(lp4608
(lp4609
g4555
aI11056
aI38
aI0
aI13
aaa(lp4610
(lp4611
g4555
aI11120
aI38
aI0
aI13
aaa(lp4612
(lp4613
g4555
aI11656
aI35
aI0
aI13
aaa(lp4614
(lp4615
g4555
aI11724
aI35
aI0
aI13
aaa(lp4616
(lp4617
g4555
aI12256
aI41
aI0
aI14
aaa(lp4618
(lp4619
g4555
aI12326
aI41
aI0
aI14
aaa(lp4620
(lp4621
g4555
aI12856
aI43
aI0
aI14
aaa(lp4622
(lp4623
g4555
aI12930
aI43
aI0
aI14
aaa(lp4624
(lp4625
g4555
aI13456
aI48
aI0
aI15
aaa(lp4626
(lp4627
g4555
aI13540
aI48
aI0
aI15
aaa(lp4628
(lp4629
g4555
aI14056
aI48
aI0
aI16
aaa(lp4630
(lp4631
g4555
aI14152
aI47
aI0
aI17
aaa(lp4632
(lp4633
g4555
aI14656
aI52
aI0
aI17
aaa(lp4634
(lp4635
g4555
aI14752
aI51
aI0
aI17
aaa(lp4636
(lp4637
g4555
aI15256
aI55
aI0
aI17
aaa(lp4638
(lp4639
g4555
aI15354
aI50
aI0
aI18
aaa(lp4640
(lp4641
g4555
aI15873
aI56
aI0
aI18
aaa(lp4642
(lp4643
g4555
aI16459
aI54
aI0
aI18
aaa(lp4644
(lp4645
g4555
aI17056
aI61
aI0
aI18
aaa(lp4646
(lp4647
g4555
aI17656
aI63
aI0
aI18
aaa(lp4648
(lp4649
g4555
aI18256
aI62
aI0
aI18
aaa(lp4650
(lp4651
g4555
aI18856
aI64
aI0
aI19
aaa(lp4652
(lp4653
S'4cx2we'
p4654
aI21
aI1
aI0
aI0
aaa(lp4655
(lp4656
g4654
aI619
aI0
aI0
aI0
aaa(lp4657
(lp4658
g4654
aI621
aI0
aI0
aI0
aaa(lp4659
(lp4660
g4654
aI1219
aI0
aI0
aI0
aaa(lp4661
(lp4662
g4654
aI1221
aI0
aI0
aI0
aaa(lp4663
(lp4664
g4654
aI4389
aI0
aI0
aI0
aaa(lp4665
(lp4666
g4654
aI4987
aI0
aI0
aI0
aaa(lp4667
(lp4668
g4654
aI5587
aI0
aI0
aI0
aaa(lp4669
(lp4670
g4654
aI6187
aI0
aI0
aI0
aaa(lp4671
(lp4672
g4654
aI6787
aI0
aI0
aI0
aaa(lp4673
(lp4674
g4654
aI7387
aI0
aI0
aI0
aaa(lp4675
(lp4676
g4654
aI7987
aI0
aI0
aI0
aaa(lp4677
(lp4678
g4654
aI8589
aI0
aI0
aI0
aaa(lp4679
(lp4680
g4654
aI9187
aI0
aI0
aI0
aaa(lp4681
(lp4682
g4654
aI9787
aI0
aI0
aI0
aaa(lp4683
(lp4684
g4654
aI10387
aI0
aI0
aI0
aaa(lp4685
(lp4686
g4654
aI10987
aI0
aI0
aI0
aaa(lp4687
(lp4688
g4654
aI11587
aI0
aI0
aI0
aaa(lp4689
(lp4690
g4654
aI12187
aI0
aI0
aI0
aaa(lp4691
(lp4692
g4654
aI12787
aI0
aI0
aI0
aaa(lp4693
(lp4694
g4654
aI13387
aI0
aI0
aI0
aaa(lp4695
(lp4696
g4654
aI13987
aI0
aI0
aI0
aaa(lp4697
(lp4698
g4654
aI14587
aI0
aI0
aI0
aaa(lp4699
(lp4700
g4654
aI15204
aI0
aI0
aI0
aaa(lp4701
(lp4702
g4654
aI15790
aI0
aI0
aI0
aaa(lp4703
(lp4704
g4654
aI16387
aI0
aI0
aI0
aaa(lp4705
(lp4706
g4654
aI16987
aI0
aI0
aI0
aaa(lp4707
(lp4708
g4654
aI17587
aI0
aI0
aI0
aaa(lp4709
(lp4710
g4654
aI18187
aI0
aI0
aI0
aaa(lp4711
(lp4712
S'4cx9fj'
p4713
aI2544
aI14
aI0
aI13
aaa(lp4714
(lp4715
g4713
aI3120
aI17
aI0
aI13
aaa(lp4716
(lp4717
g4713
aI3146
aI17
aI0
aI13
aaa(lp4718
(lp4719
g4713
aI3720
aI19
aI0
aI16
aaa(lp4720
(lp4721
g4713
aI3752
aI19
aI0
aI16
aaa(lp4722
(lp4723
g4713
aI4320
aI24
aI0
aI18
aaa(lp4724
(lp4725
g4713
aI4360
aI24
aI0
aI18
aaa(lp4726
(lp4727
g4713
aI4920
aI26
aI0
aI22
aaa(lp4728
(lp4729
g4713
aI4960
aI26
aI0
aI22
aaa(lp4730
(lp4731
g4713
aI5520
aI31
aI0
aI26
aaa(lp4732
(lp4733
g4713
aI5568
aI31
aI0
aI26
aaa(lp4734
(lp4735
g4713
aI6120
aI33
aI0
aI29
aaa(lp4736
(lp4737
g4713
aI6168
aI33
aI0
aI29
aaa(lp4738
(lp4739
g4713
aI6722
aI39
aI0
aI34
aaa(lp4740
(lp4741
g4713
aI6770
aI39
aI0
aI34
aaa(lp4742
(lp4743
g4713
aI7320
aI46
aI0
aI35
aaa(lp4744
(lp4745
g4713
aI7370
aI46
aI0
aI35
aaa(lp4746
(lp4747
g4713
aI7920
aI47
aI0
aI37
aaa(lp4748
(lp4749
g4713
aI7974
aI47
aI0
aI37
aaa(lp4750
(lp4751
g4713
aI8520
aI51
aI0
aI43
aaa(lp4752
(lp4753
g4713
aI8578
aI51
aI0
aI43
aaa(lp4754
(lp4755
g4713
aI9120
aI55
aI0
aI44
aaa(lp4756
(lp4757
g4713
aI9182
aI55
aI0
aI44
aaa(lp4758
(lp4759
g4713
aI9720
aI58
aI0
aI53
aaa(lp4760
(lp4761
g4713
aI9784
aI58
aI0
aI53
aaa(lp4762
(lp4763
g4713
aI10321
aI61
aI0
aI60
aaa(lp4764
(lp4765
g4713
aI10388
aI61
aI0
aI60
aaa(lp4766
(lp4767
g4713
aI10920
aI73
aI0
aI63
aaa(lp4768
(lp4769
g4713
aI10998
aI73
aI0
aI63
aaa(lp4770
(lp4771
g4713
aI11520
aI77
aI0
aI63
aaa(lp4772
(lp4773
g4713
aI11610
aI73
aI0
aI63
aaa(lp4774
(lp4775
g4713
aI12120
aI81
aI0
aI63
aaa(lp4776
(lp4777
g4713
aI12210
aI81
aI0
aI63
aaa(lp4778
(lp4779
g4713
aI12720
aI91
aI0
aI64
aaa(lp4780
(lp4781
g4713
aI12812
aI88
aI0
aI64
aaa(lp4782
(lp4783
g4713
aI13337
aI90
aI0
aI68
aaa(lp4784
(lp4785
g4713
aI13923
aI96
aI0
aI69
aaa(lp4786
(lp4787
g4713
aI14520
aI95
aI0
aI71
aaa(lp4788
(lp4789
g4713
aI15120
aI100
aI0
aI72
aaa(lp4790
(lp4791
g4713
aI15720
aI102
aI0
aI73
aaa(lp4792
(lp4793
g4713
aI16320
aI102
aI0
aI74
aaa(lp4794
(lp4795
S'4cxavm'
p4796
aI2156
aI12
aI0
aI18
aaa(lp4797
(lp4798
g4796
aI2737
aI15
aI0
aI23
aaa(lp4799
(lp4800
g4796
aI2760
aI15
aI0
aI23
aaa(lp4801
(lp4802
g4796
aI3336
aI16
aI0
aI36
aaa(lp4803
(lp4804
g4796
aI3364
aI16
aI0
aI36
aaa(lp4805
(lp4806
g4796
aI3936
aI18
aI0
aI40
aaa(lp4807
(lp4808
g4796
aI3972
aI18
aI0
aI40
aaa(lp4809
(lp4810
g4796
aI4536
aI21
aI0
aI43
aaa(lp4811
(lp4812
g4796
aI4572
aI21
aI0
aI43
aaa(lp4813
(lp4814
g4796
aI5136
aI24
aI0
aI47
aaa(lp4815
(lp4816
g4796
aI5180
aI24
aI0
aI47
aaa(lp4817
(lp4818
g4796
aI5736
aI27
aI0
aI50
aaa(lp4819
(lp4820
g4796
aI5780
aI27
aI0
aI50
aaa(lp4821
(lp4822
g4796
aI6338
aI34
aI0
aI51
aaa(lp4823
(lp4824
g4796
aI6382
aI34
aI0
aI51
aaa(lp4825
(lp4826
g4796
aI6936
aI35
aI0
aI54
aaa(lp4827
(lp4828
g4796
aI6982
aI35
aI0
aI54
aaa(lp4829
(lp4830
g4796
aI7536
aI39
aI0
aI57
aaa(lp4831
(lp4832
g4796
aI7586
aI39
aI0
aI57
aaa(lp4833
(lp4834
g4796
aI8136
aI42
aI0
aI65
aaa(lp4835
(lp4836
g4796
aI8190
aI42
aI0
aI65
aaa(lp4837
(lp4838
g4796
aI8736
aI46
aI0
aI73
aaa(lp4839
(lp4840
g4796
aI8794
aI46
aI0
aI73
aaa(lp4841
(lp4842
g4796
aI9336
aI49
aI0
aI79
aaa(lp4843
(lp4844
g4796
aI9396
aI49
aI0
aI79
aaa(lp4845
(lp4846
g4796
aI9936
aI62
aI0
aI87
aaa(lp4847
(lp4848
g4796
aI10000
aI62
aI0
aI87
aaa(lp4849
(lp4850
g4796
aI10536
aI66
aI0
aI90
aaa(lp4851
(lp4852
g4796
aI10610
aI66
aI0
aI90
aaa(lp4853
(lp4854
g4796
aI11137
aI69
aI0
aI99
aaa(lp4855
(lp4856
g4796
aI11222
aI69
aI0
aI99
aaa(lp4857
(lp4858
g4796
aI11737
aI69
aI0
aI109
aaa(lp4859
(lp4860
g4796
aI11822
aI69
aI0
aI109
aaa(lp4861
(lp4862
g4796
aI12337
aI76
aI0
aI114
aaa(lp4863
(lp4864
g4796
aI12424
aI76
aI0
aI114
aaa(lp4865
(lp4866
g4796
aI12954
aI77
aI0
aI117
aaa(lp4867
(lp4868
g4796
aI13539
aI80
aI0
aI120
aaa(lp4869
(lp4870
g4796
aI14137
aI82
aI0
aI126
aaa(lp4871
(lp4872
g4796
aI14737
aI83
aI0
aI130
aaa(lp4873
(lp4874
g4796
aI15337
aI86
aI0
aI134
aaa(lp4875
(lp4876
g4796
aI15937
aI89
aI0
aI138
aaa(lp4877
(lp4878
S'4cxcb6'
p4879
aI1762
aI19
aI0
aI19
aaa(lp4880
(lp4881
g4879
aI2346
aI22
aI0
aI25
aaa(lp4882
(lp4883
g4879
aI2368
aI22
aI0
aI25
aaa(lp4884
(lp4885
g4879
aI2946
aI27
aI0
aI35
aaa(lp4886
(lp4887
g4879
aI2972
aI27
aI0
aI35
aaa(lp4888
(lp4889
g4879
aI3546
aI40
aI0
aI42
aaa(lp4890
(lp4891
g4879
aI3578
aI40
aI0
aI42
aaa(lp4892
(lp4893
g4879
aI4146
aI43
aI0
aI56
aaa(lp4894
(lp4895
g4879
aI4178
aI43
aI0
aI56
aaa(lp4896
(lp4897
g4879
aI4746
aI52
aI0
aI67
aaa(lp4898
(lp4899
g4879
aI4786
aI52
aI0
aI67
aaa(lp4900
(lp4901
g4879
aI5346
aI61
aI0
aI85
aaa(lp4902
(lp4903
g4879
aI5386
aI61
aI0
aI85
aaa(lp4904
(lp4905
g4879
aI5948
aI63
aI0
aI90
aaa(lp4906
(lp4907
g4879
aI5988
aI63
aI0
aI90
aaa(lp4908
(lp4909
g4879
aI6547
aI66
aI0
aI103
aaa(lp4910
(lp4911
g4879
aI6588
aI66
aI0
aI103
aaa(lp4912
(lp4913
g4879
aI7146
aI74
aI0
aI111
aaa(lp4914
(lp4915
g4879
aI7747
aI71
aI0
aI116
aaa(lp4916
(lp4917
g4879
aI8347
aI75
aI0
aI118
aaa(lp4918
(lp4919
g4879
aI8947
aI74
aI0
aI122
aaa(lp4920
(lp4921
g4879
aI9547
aI73
aI0
aI124
aaa(lp4922
(lp4923
g4879
aI10147
aI74
aI0
aI124
aaa(lp4924
(lp4925
g4879
aI10747
aI73
aI0
aI124
aaa(lp4926
(lp4927
g4879
aI11347
aI71
aI0
aI124
aaa(lp4928
(lp4929
g4879
aI11946
aI74
aI0
aI124
aaa(lp4930
(lp4931
g4879
aI12564
aI72
aI0
aI124
aaa(lp4932
(lp4933
g4879
aI13150
aI76
aI0
aI124
aaa(lp4934
(lp4935
g4879
aI13747
aI71
aI0
aI126
aaa(lp4936
(lp4937
g4879
aI14347
aI70
aI0
aI126
aaa(lp4938
(lp4939
g4879
aI14946
aI75
aI0
aI126
aaa(lp4940
(lp4941
g4879
aI15546
aI72
aI0
aI126
aaa(lp4942
(lp4943
S'4cxcnz'
p4944
aI1645
aI0
aI0
aI9
aaa(lp4945
(lp4946
g4944
aI2233
aI0
aI0
aI9
aaa(lp4947
(lp4948
g4944
aI2253
aI0
aI0
aI9
aaa(lp4949
(lp4950
g4944
aI2833
aI0
aI0
aI10
aaa(lp4951
(lp4952
g4944
aI2857
aI0
aI0
aI10
aaa(lp4953
(lp4954
g4944
aI3433
aI0
aI0
aI10
aaa(lp4955
(lp4956
g4944
aI3461
aI0
aI0
aI10
aaa(lp4957
(lp4958
g4944
aI4033
aI0
aI0
aI10
aaa(lp4959
(lp4960
g4944
aI4061
aI0
aI0
aI10
aaa(lp4961
(lp4962
g4944
aI4633
aI0
aI0
aI10
aaa(lp4963
(lp4964
g4944
aI4669
aI0
aI0
aI10
aaa(lp4965
(lp4966
g4944
aI5233
aI0
aI0
aI12
aaa(lp4967
(lp4968
g4944
aI5835
aI0
aI0
aI12
aaa(lp4969
(lp4970
g4944
aI6433
aI0
aI0
aI12
aaa(lp4971
(lp4972
g4944
aI7033
aI0
aI0
aI12
aaa(lp4973
(lp4974
g4944
aI7633
aI0
aI0
aI12
aaa(lp4975
(lp4976
g4944
aI8233
aI0
aI0
aI12
aaa(lp4977
(lp4978
g4944
aI8833
aI0
aI0
aI12
aaa(lp4979
(lp4980
g4944
aI9433
aI0
aI0
aI12
aaa(lp4981
(lp4982
g4944
aI10033
aI0
aI0
aI12
aaa(lp4983
(lp4984
g4944
aI10633
aI0
aI0
aI12
aaa(lp4985
(lp4986
g4944
aI11233
aI0
aI0
aI12
aaa(lp4987
(lp4988
g4944
aI11833
aI0
aI0
aI12
aaa(lp4989
(lp4990
g4944
aI12450
aI0
aI0
aI12
aaa(lp4991
(lp4992
g4944
aI13036
aI0
aI0
aI12
aaa(lp4993
(lp4994
g4944
aI13633
aI0
aI0
aI12
aaa(lp4995
(lp4996
g4944
aI14233
aI0
aI0
aI12
aaa(lp4997
(lp4998
g4944
aI14833
aI0
aI0
aI12
aaa(lp4999
(lp5000
g4944
aI15433
aI0
aI0
aI12
aaa(lp5001
(lp5002
S'4cxd2v'
p5003
aI1524
aI5
aI0
aI3
aaa(lp5004
(lp5005
g5003
aI2116
aI5
aI0
aI3
aaa(lp5006
(lp5007
g5003
aI2134
aI5
aI0
aI3
aaa(lp5008
(lp5009
g5003
aI2716
aI7
aI0
aI4
aaa(lp5010
(lp5011
g5003
aI2738
aI7
aI0
aI4
aaa(lp5012
(lp5013
g5003
aI3316
aI6
aI0
aI4
aaa(lp5014
(lp5015
g5003
aI3342
aI6
aI0
aI4
aaa(lp5016
(lp5017
g5003
aI3916
aI8
aI0
aI4
aaa(lp5018
(lp5019
g5003
aI3942
aI8
aI0
aI4
aaa(lp5020
(lp5021
g5003
aI4516
aI8
aI0
aI4
aaa(lp5022
(lp5023
g5003
aI4548
aI8
aI0
aI4
aaa(lp5024
(lp5025
g5003
aI5116
aI7
aI0
aI4
aaa(lp5026
(lp5027
g5003
aI5150
aI7
aI0
aI4
aaa(lp5028
(lp5029
g5003
aI5718
aI9
aI0
aI4
aaa(lp5030
(lp5031
g5003
aI5752
aI9
aI0
aI4
aaa(lp5032
(lp5033
g5003
aI6316
aI10
aI0
aI5
aaa(lp5034
(lp5035
g5003
aI6352
aI10
aI0
aI5
aaa(lp5036
(lp5037
g5003
aI6916
aI11
aI0
aI5
aaa(lp5038
(lp5039
g5003
aI6958
aI11
aI0
aI5
aaa(lp5040
(lp5041
g5003
aI7516
aI12
aI0
aI5
aaa(lp5042
(lp5043
g5003
aI7562
aI12
aI0
aI5
aaa(lp5044
(lp5045
g5003
aI8116
aI12
aI0
aI6
aaa(lp5046
(lp5047
g5003
aI8166
aI12
aI0
aI6
aaa(lp5048
(lp5049
g5003
aI8716
aI13
aI0
aI6
aaa(lp5050
(lp5051
g5003
aI8768
aI13
aI0
aI6
aaa(lp5052
(lp5053
g5003
aI9316
aI14
aI0
aI6
aaa(lp5054
(lp5055
g5003
aI9372
aI14
aI0
aI6
aaa(lp5056
(lp5057
g5003
aI9916
aI14
aI0
aI6
aaa(lp5058
(lp5059
g5003
aI9982
aI14
aI0
aI6
aaa(lp5060
(lp5061
g5003
aI10516
aI14
aI0
aI6
aaa(lp5062
(lp5063
g5003
aI10594
aI14
aI0
aI6
aaa(lp5064
(lp5065
g5003
aI11116
aI14
aI0
aI7
aaa(lp5066
(lp5067
g5003
aI11194
aI14
aI0
aI7
aaa(lp5068
(lp5069
g5003
aI11716
aI12
aI0
aI8
aaa(lp5070
(lp5071
g5003
aI11796
aI12
aI0
aI8
aaa(lp5072
(lp5073
g5003
aI12333
aI16
aI0
aI9
aaa(lp5074
(lp5075
g5003
aI12919
aI17
aI0
aI9
aaa(lp5076
(lp5077
g5003
aI13516
aI16
aI0
aI9
aaa(lp5078
(lp5079
g5003
aI14116
aI19
aI0
aI9
aaa(lp5080
(lp5081
g5003
aI14716
aI20
aI0
aI9
aaa(lp5082
(lp5083
g5003
aI15316
aI23
aI0
aI9
aaa(lp5084
(lp5085
S'4cxd9l'
p5086
aI1473
aI2
aI0
aI4
aaa(lp5087
(lp5088
g5086
aI2069
aI3
aI0
aI6
aaa(lp5089
(lp5090
g5086
aI2085
aI3
aI0
aI6
aaa(lp5091
(lp5092
g5086
aI2669
aI3
aI0
aI7
aaa(lp5093
(lp5094
g5086
aI2689
aI3
aI0
aI7
aaa(lp5095
(lp5096
g5086
aI3269
aI2
aI0
aI8
aaa(lp5097
(lp5098
g5086
aI3293
aI2
aI0
aI8
aaa(lp5099
(lp5100
g5086
aI3869
aI3
aI0
aI8
aaa(lp5101
(lp5102
g5086
aI3893
aI3
aI0
aI8
aaa(lp5103
(lp5104
g5086
aI4469
aI3
aI0
aI9
aaa(lp5105
(lp5106
g5086
aI4497
aI3
aI0
aI9
aaa(lp5107
(lp5108
g5086
aI5069
aI2
aI0
aI9
aaa(lp5109
(lp5110
g5086
aI5671
aI2
aI0
aI9
aaa(lp5111
(lp5112
g5086
aI6269
aI3
aI0
aI9
aaa(lp5113
(lp5114
g5086
aI6869
aI1
aI0
aI9
aaa(lp5115
(lp5116
g5086
aI7469
aI4
aI0
aI9
aaa(lp5117
(lp5118
g5086
aI8069
aI2
aI0
aI9
aaa(lp5119
(lp5120
g5086
aI8669
aI2
aI0
aI9
aaa(lp5121
(lp5122
g5086
aI9269
aI3
aI0
aI9
aaa(lp5123
(lp5124
g5086
aI9869
aI3
aI0
aI9
aaa(lp5125
(lp5126
g5086
aI10469
aI0
aI0
aI9
aaa(lp5127
(lp5128
g5086
aI11069
aI2
aI0
aI9
aaa(lp5129
(lp5130
g5086
aI11669
aI4
aI0
aI9
aaa(lp5131
(lp5132
g5086
aI12286
aI3
aI0
aI9
aaa(lp5133
(lp5134
g5086
aI12872
aI2
aI0
aI9
aaa(lp5135
(lp5136
g5086
aI13469
aI2
aI0
aI9
aaa(lp5137
(lp5138
g5086
aI14069
aI2
aI0
aI9
aaa(lp5139
(lp5140
g5086
aI14669
aI3
aI0
aI9
aaa(lp5141
(lp5142
g5086
aI15269
aI3
aI0
aI9
aaa(lp5143
(lp5144
S'4cxdrv'
p5145
aI1328
aI5
aI0
aI5
aaa(lp5146
(lp5147
g5145
aI1928
aI13
aI0
aI8
aaa(lp5148
(lp5149
g5145
aI1942
aI13
aI0
aI8
aaa(lp5150
(lp5151
g5145
aI2528
aI15
aI0
aI8
aaa(lp5152
(lp5153
g5145
aI2546
aI15
aI0
aI8
aaa(lp5154
(lp5155
g5145
aI3128
aI26
aI0
aI12
aaa(lp5156
(lp5157
g5145
aI3150
aI26
aI0
aI12
aaa(lp5158
(lp5159
g5145
aI3728
aI43
aI0
aI15
aaa(lp5160
(lp5161
g5145
aI3750
aI43
aI0
aI15
aaa(lp5162
(lp5163
g5145
aI4328
aI61
aI0
aI17
aaa(lp5164
(lp5165
g5145
aI4928
aI65
aI0
aI19
aaa(lp5166
(lp5167
g5145
aI5530
aI64
aI0
aI19
aaa(lp5168
(lp5169
g5145
aI6128
aI65
aI0
aI19
aaa(lp5170
(lp5171
g5145
aI6728
aI64
aI0
aI19
aaa(lp5172
(lp5173
g5145
aI7328
aI68
aI0
aI19
aaa(lp5174
(lp5175
g5145
aI7928
aI67
aI0
aI19
aaa(lp5176
(lp5177
g5145
aI8528
aI69
aI0
aI19
aaa(lp5178
(lp5179
g5145
aI9128
aI69
aI0
aI19
aaa(lp5180
(lp5181
g5145
aI9728
aI68
aI0
aI19
aaa(lp5182
(lp5183
g5145
aI10328
aI67
aI0
aI19
aaa(lp5184
(lp5185
g5145
aI10928
aI69
aI0
aI19
aaa(lp5186
(lp5187
g5145
aI11528
aI71
aI0
aI19
aaa(lp5188
(lp5189
g5145
aI12145
aI67
aI0
aI19
aaa(lp5190
(lp5191
g5145
aI12731
aI71
aI0
aI19
aaa(lp5192
(lp5193
g5145
aI13328
aI69
aI0
aI19
aaa(lp5194
(lp5195
g5145
aI13928
aI67
aI0
aI19
aaa(lp5196
(lp5197
g5145
aI14528
aI67
aI0
aI19
aaa(lp5198
(lp5199
g5145
aI15128
aI67
aI0
aI19
aaa(lp5200
(lp5201
S'4cxegm'
p5202
aI1143
aI8
aI0
aI2
aaa(lp5203
(lp5204
g5202
aI1747
aI10
aI0
aI2
aaa(lp5205
(lp5206
g5202
aI1759
aI10
aI0
aI2
aaa(lp5207
(lp5208
g5202
aI2347
aI10
aI0
aI2
aaa(lp5209
(lp5210
g5202
aI2363
aI10
aI0
aI2
aaa(lp5211
(lp5212
g5202
aI2947
aI13
aI0
aI2
aaa(lp5213
(lp5214
g5202
aI2967
aI13
aI0
aI2
aaa(lp5215
(lp5216
g5202
aI3547
aI15
aI0
aI2
aaa(lp5217
(lp5218
g5202
aI3567
aI15
aI0
aI2
aaa(lp5219
(lp5220
g5202
aI4147
aI17
aI0
aI2
aaa(lp5221
(lp5222
g5202
aI4171
aI17
aI0
aI2
aaa(lp5223
(lp5224
g5202
aI4747
aI20
aI0
aI2
aaa(lp5225
(lp5226
g5202
aI4773
aI20
aI0
aI2
aaa(lp5227
(lp5228
g5202
aI5349
aI22
aI0
aI2
aaa(lp5229
(lp5230
g5202
aI5375
aI22
aI0
aI2
aaa(lp5231
(lp5232
g5202
aI5947
aI25
aI0
aI3
aaa(lp5233
(lp5234
g5202
aI5975
aI25
aI0
aI3
aaa(lp5235
(lp5236
g5202
aI6547
aI26
aI0
aI5
aaa(lp5237
(lp5238
g5202
aI6581
aI26
aI0
aI5
aaa(lp5239
(lp5240
g5202
aI7147
aI27
aI0
aI6
aaa(lp5241
(lp5242
g5202
aI7185
aI27
aI0
aI6
aaa(lp5243
(lp5244
g5202
aI7747
aI28
aI0
aI7
aaa(lp5245
(lp5246
g5202
aI7789
aI28
aI0
aI7
aaa(lp5247
(lp5248
g5202
aI8347
aI27
aI0
aI8
aaa(lp5249
(lp5250
g5202
aI8391
aI27
aI0
aI8
aaa(lp5251
(lp5252
g5202
aI8947
aI32
aI0
aI8
aaa(lp5253
(lp5254
g5202
aI8995
aI32
aI0
aI8
aaa(lp5255
(lp5256
g5202
aI9547
aI31
aI0
aI8
aaa(lp5257
(lp5258
g5202
aI9605
aI31
aI0
aI8
aaa(lp5259
(lp5260
g5202
aI10147
aI31
aI0
aI8
aaa(lp5261
(lp5262
g5202
aI10217
aI31
aI0
aI8
aaa(lp5263
(lp5264
g5202
aI10747
aI31
aI0
aI8
aaa(lp5265
(lp5266
g5202
aI10817
aI31
aI0
aI8
aaa(lp5267
(lp5268
g5202
aI11347
aI31
aI0
aI8
aaa(lp5269
(lp5270
g5202
aI11419
aI31
aI0
aI8
aaa(lp5271
(lp5272
g5202
aI11964
aI37
aI0
aI8
aaa(lp5273
(lp5274
g5202
aI12052
aI37
aI0
aI8
aaa(lp5275
(lp5276
g5202
aI12550
aI34
aI0
aI9
aaa(lp5277
(lp5278
g5202
aI13147
aI37
aI0
aI9
aaa(lp5279
(lp5280
g5202
aI13747
aI34
aI0
aI9
aaa(lp5281
(lp5282
g5202
aI14347
aI37
aI0
aI9
aaa(lp5283
(lp5284
g5202
aI14947
aI36
aI0
aI9
aaa(lp5285
(lp5286
S'4cxfjj'
p5287
aI852
aI13
aI0
aI5
aaa(lp5288
(lp5289
g5287
aI1460
aI16
aI0
aI12
aaa(lp5290
(lp5291
g5287
aI1470
aI16
aI0
aI12
aaa(lp5292
(lp5293
g5287
aI2060
aI20
aI0
aI20
aaa(lp5294
(lp5295
g5287
aI2074
aI20
aI0
aI20
aaa(lp5296
(lp5297
g5287
aI2660
aI23
aI0
aI28
aaa(lp5298
(lp5299
g5287
aI3260
aI24
aI0
aI29
aaa(lp5300
(lp5301
g5287
aI3860
aI24
aI0
aI31
aaa(lp5302
(lp5303
g5287
aI4460
aI24
aI0
aI31
aaa(lp5304
(lp5305
g5287
aI5062
aI24
aI0
aI31
aaa(lp5306
(lp5307
g5287
aI5660
aI24
aI0
aI31
aaa(lp5308
(lp5309
g5287
aI6260
aI24
aI0
aI31
aaa(lp5310
(lp5311
g5287
aI6860
aI25
aI0
aI31
aaa(lp5312
(lp5313
g5287
aI7460
aI24
aI0
aI31
aaa(lp5314
(lp5315
g5287
aI8060
aI24
aI0
aI31
aaa(lp5316
(lp5317
g5287
aI8660
aI23
aI0
aI31
aaa(lp5318
(lp5319
g5287
aI9260
aI25
aI0
aI31
aaa(lp5320
(lp5321
g5287
aI9860
aI22
aI0
aI31
aaa(lp5322
(lp5323
g5287
aI10460
aI25
aI0
aI31
aaa(lp5324
(lp5325
g5287
aI11060
aI23
aI0
aI31
aaa(lp5326
(lp5327
g5287
aI11677
aI24
aI0
aI31
aaa(lp5328
(lp5329
g5287
aI12263
aI25
aI0
aI31
aaa(lp5330
(lp5331
g5287
aI12860
aI25
aI0
aI31
aaa(lp5332
(lp5333
g5287
aI13460
aI23
aI0
aI31
aaa(lp5334
(lp5335
g5287
aI14060
aI24
aI0
aI31
aaa(lp5336
(lp5337
g5287
aI14660
aI25
aI0
aI31
aaa(lp5338
(lp5339
S'4cxgas'
p5340
aI642
aI0
aI0
aI4
aaa(lp5341
(lp5342
g5340
aI1254
aI0
aI0
aI6
aaa(lp5343
(lp5344
g5340
aI1262
aI0
aI0
aI6
aaa(lp5345
(lp5346
g5340
aI1854
aI0
aI0
aI6
aaa(lp5347
(lp5348
g5340
aI1866
aI0
aI0
aI6
aaa(lp5349
(lp5350
g5340
aI2454
aI0
aI0
aI7
aaa(lp5351
(lp5352
g5340
aI2470
aI0
aI0
aI7
aaa(lp5353
(lp5354
g5340
aI3054
aI0
aI0
aI9
aaa(lp5355
(lp5356
g5340
aI3070
aI0
aI0
aI9
aaa(lp5357
(lp5358
g5340
aI3654
aI0
aI0
aI12
aaa(lp5359
(lp5360
g5340
aI4254
aI0
aI0
aI15
aaa(lp5361
(lp5362
g5340
aI4856
aI0
aI0
aI16
aaa(lp5363
(lp5364
g5340
aI5454
aI0
aI0
aI16
aaa(lp5365
(lp5366
g5340
aI6054
aI0
aI0
aI16
aaa(lp5367
(lp5368
g5340
aI6654
aI0
aI0
aI16
aaa(lp5369
(lp5370
g5340
aI7254
aI0
aI0
aI16
aaa(lp5371
(lp5372
g5340
aI7854
aI0
aI0
aI16
aaa(lp5373
(lp5374
g5340
aI8454
aI0
aI0
aI16
aaa(lp5375
(lp5376
g5340
aI9054
aI0
aI0
aI16
aaa(lp5377
(lp5378
g5340
aI9654
aI0
aI0
aI16
aaa(lp5379
(lp5380
g5340
aI10254
aI0
aI0
aI16
aaa(lp5381
(lp5382
g5340
aI10854
aI0
aI0
aI16
aaa(lp5383
(lp5384
g5340
aI11471
aI1
aI0
aI16
aaa(lp5385
(lp5386
g5340
aI12057
aI0
aI0
aI16
aaa(lp5387
(lp5388
g5340
aI12654
aI1
aI0
aI16
aaa(lp5389
(lp5390
g5340
aI13254
aI0
aI0
aI16
aaa(lp5391
(lp5392
g5340
aI13854
aI0
aI0
aI16
aaa(lp5393
(lp5394
g5340
aI14454
aI0
aI0
aI16
aaa(lp5395
(lp5396
S'4cxh8i'
p5397
aI387
aI2
aI0
aI0
aaa(lp5398
(lp5399
g5397
aI1003
aI2
aI0
aI3
aaa(lp5400
(lp5401
g5397
aI1009
aI2
aI0
aI3
aaa(lp5402
(lp5403
g5397
aI1603
aI3
aI0
aI6
aaa(lp5404
(lp5405
g5397
aI1613
aI3
aI0
aI6
aaa(lp5406
(lp5407
g5397
aI2203
aI5
aI0
aI9
aaa(lp5408
(lp5409
g5397
aI2217
aI5
aI0
aI9
aaa(lp5410
(lp5411
g5397
aI2803
aI2
aI0
aI11
aaa(lp5412
(lp5413
g5397
aI2817
aI2
aI0
aI11
aaa(lp5414
(lp5415
g5397
aI3403
aI5
aI0
aI12
aaa(lp5416
(lp5417
g5397
aI3421
aI5
aI0
aI12
aaa(lp5418
(lp5419
g5397
aI4003
aI6
aI0
aI12
aaa(lp5420
(lp5421
g5397
aI4605
aI6
aI0
aI12
aaa(lp5422
(lp5423
g5397
aI5203
aI5
aI0
aI12
aaa(lp5424
(lp5425
g5397
aI5803
aI6
aI0
aI12
aaa(lp5426
(lp5427
g5397
aI6403
aI6
aI0
aI12
aaa(lp5428
(lp5429
g5397
aI7003
aI6
aI0
aI12
aaa(lp5430
(lp5431
g5397
aI7603
aI5
aI0
aI13
aaa(lp5432
(lp5433
g5397
aI8203
aI7
aI0
aI13
aaa(lp5434
(lp5435
g5397
aI8803
aI6
aI0
aI14
aaa(lp5436
(lp5437
g5397
aI9403
aI4
aI0
aI14
aaa(lp5438
(lp5439
g5397
aI10003
aI6
aI0
aI14
aaa(lp5440
(lp5441
g5397
aI10603
aI5
aI0
aI14
aaa(lp5442
(lp5443
g5397
aI11220
aI6
aI0
aI14
aaa(lp5444
(lp5445
g5397
aI11806
aI7
aI0
aI14
aaa(lp5446
(lp5447
g5397
aI12403
aI5
aI0
aI14
aaa(lp5448
(lp5449
g5397
aI13003
aI6
aI0
aI14
aaa(lp5450
(lp5451
g5397
aI13603
aI7
aI0
aI14
aaa(lp5452
(lp5453
g5397
aI14203
aI7
aI0
aI14
aaa(lp5454
(lp5455
S'4cxj42'
p5456
aI479
aI6
aI0
aI7
aaa(lp5457
(lp5458
g5456
aI1075
aI10
aI0
aI10
aaa(lp5459
(lp5460
g5456
aI1083
aI10
aI0
aI10
aaa(lp5461
(lp5462
g5456
aI1675
aI26
aI0
aI16
aaa(lp5463
(lp5464
g5456
aI1687
aI26
aI0
aI16
aaa(lp5465
(lp5466
g5456
aI2275
aI33
aI0
aI19
aaa(lp5467
(lp5468
g5456
aI2287
aI33
aI0
aI19
aaa(lp5469
(lp5470
g5456
aI2875
aI44
aI0
aI23
aaa(lp5471
(lp5472
g5456
aI2891
aI44
aI0
aI23
aaa(lp5473
(lp5474
g5456
aI3475
aI63
aI0
aI26
aaa(lp5475
(lp5476
g5456
aI3493
aI63
aI0
aI26
aaa(lp5477
(lp5478
g5456
aI4077
aI70
aI0
aI31
aaa(lp5479
(lp5480
g5456
aI4095
aI70
aI0
aI31
aaa(lp5481
(lp5482
g5456
aI4675
aI92
aI0
aI35
aaa(lp5483
(lp5484
g5456
aI4695
aI92
aI0
aI35
aaa(lp5485
(lp5486
g5456
aI5275
aI108
aI0
aI45
aaa(lp5487
(lp5488
g5456
aI5299
aI108
aI0
aI45
aaa(lp5489
(lp5490
g5456
aI5875
aI125
aI0
aI49
aaa(lp5491
(lp5492
g5456
aI5903
aI125
aI0
aI49
aaa(lp5493
(lp5494
g5456
aI6475
aI133
aI0
aI62
aaa(lp5495
(lp5496
g5456
aI6507
aI133
aI0
aI62
aaa(lp5497
(lp5498
g5456
aI7075
aI141
aI0
aI72
aaa(lp5499
(lp5500
g5456
aI7109
aI141
aI0
aI72
aaa(lp5501
(lp5502
g5456
aI7675
aI153
aI0
aI75
aaa(lp5503
(lp5504
g5456
aI7713
aI153
aI0
aI75
aaa(lp5505
(lp5506
g5456
aI8275
aI164
aI0
aI80
aaa(lp5507
(lp5508
g5456
aI8323
aI164
aI0
aI80
aaa(lp5509
(lp5510
g5456
aI8875
aI175
aI0
aI82
aaa(lp5511
(lp5512
g5456
aI8935
aI175
aI0
aI82
aaa(lp5513
(lp5514
g5456
aI9475
aI192
aI0
aI83
aaa(lp5515
(lp5516
g5456
aI9535
aI192
aI0
aI83
aaa(lp5517
(lp5518
g5456
aI10075
aI201
aI0
aI88
aaa(lp5519
(lp5520
g5456
aI10137
aI201
aI0
aI88
aaa(lp5521
(lp5522
g5456
aI10692
aI210
aI0
aI93
aaa(lp5523
(lp5524
g5456
aI10770
aI210
aI0
aI93
aaa(lp5525
(lp5526
g5456
aI11278
aI229
aI0
aI97
aaa(lp5527
(lp5528
g5456
aI11876
aI238
aI0
aI100
aaa(lp5529
(lp5530
g5456
aI12475
aI247
aI0
aI101
aaa(lp5531
(lp5532
g5456
aI13075
aI253
aI0
aI104
aaa(lp5533
(lp5534
g5456
aI13676
aI259
aI0
aI109
aaa(lp5535
(lp5536
S'4cxjfj'
p5537
aI390
aI3
aI0
aI5
aaa(lp5538
(lp5539
g5537
aI990
aI7
aI0
aI14
aaa(lp5540
(lp5541
g5537
aI996
aI7
aI0
aI14
aaa(lp5542
(lp5543
g5537
aI1590
aI9
aI0
aI26
aaa(lp5544
(lp5545
g5537
aI1600
aI9
aI0
aI26
aaa(lp5546
(lp5547
g5537
aI2190
aI11
aI0
aI41
aaa(lp5548
(lp5549
g5537
aI2200
aI11
aI0
aI41
aaa(lp5550
(lp5551
g5537
aI2790
aI14
aI0
aI47
aaa(lp5552
(lp5553
g5537
aI2804
aI14
aI0
aI47
aaa(lp5554
(lp5555
g5537
aI3390
aI11
aI0
aI58
aaa(lp5556
(lp5557
g5537
aI3406
aI11
aI0
aI58
aaa(lp5558
(lp5559
g5537
aI3992
aI15
aI0
aI66
aaa(lp5560
(lp5561
g5537
aI4008
aI15
aI0
aI66
aaa(lp5562
(lp5563
g5537
aI4590
aI18
aI0
aI74
aaa(lp5564
(lp5565
g5537
aI4608
aI18
aI0
aI74
aaa(lp5566
(lp5567
g5537
aI5190
aI21
aI0
aI79
aaa(lp5568
(lp5569
g5537
aI5212
aI21
aI0
aI79
aaa(lp5570
(lp5571
g5537
aI5790
aI23
aI0
aI79
aaa(lp5572
(lp5573
g5537
aI5816
aI23
aI0
aI79
aaa(lp5574
(lp5575
g5537
aI6390
aI24
aI0
aI88
aaa(lp5576
(lp5577
g5537
aI6418
aI24
aI0
aI88
aaa(lp5578
(lp5579
g5537
aI6991
aI24
aI0
aI95
aaa(lp5580
(lp5581
g5537
aI7020
aI24
aI0
aI95
aaa(lp5582
(lp5583
g5537
aI7590
aI29
aI0
aI96
aaa(lp5584
(lp5585
g5537
aI7624
aI29
aI0
aI96
aaa(lp5586
(lp5587
g5537
aI8190
aI32
aI0
aI104
aaa(lp5588
(lp5589
g5537
aI8234
aI32
aI0
aI104
aaa(lp5590
(lp5591
g5537
aI8790
aI35
aI0
aI109
aaa(lp5592
(lp5593
g5537
aI8846
aI35
aI0
aI109
aaa(lp5594
(lp5595
g5537
aI9390
aI33
aI0
aI113
aaa(lp5596
(lp5597
g5537
aI9446
aI33
aI0
aI113
aaa(lp5598
(lp5599
g5537
aI9990
aI36
aI0
aI123
aaa(lp5600
(lp5601
g5537
aI10048
aI36
aI0
aI123
aaa(lp5602
(lp5603
g5537
aI10608
aI41
aI0
aI127
aaa(lp5604
(lp5605
g5537
aI10681
aI41
aI0
aI127
aaa(lp5606
(lp5607
g5537
aI11194
aI41
aI0
aI135
aaa(lp5608
(lp5609
g5537
aI11273
aI41
aI0
aI135
aaa(lp5610
(lp5611
g5537
aI11790
aI43
aI0
aI137
aaa(lp5612
(lp5613
g5537
aI12391
aI46
aI0
aI146
aaa(lp5614
(lp5615
g5537
aI12991
aI46
aI0
aI151
aaa(lp5616
(lp5617
g5537
aI13591
aI46
aI0
aI156
aaa(lp5618
(lp5619
S'4cxlw6'
p5620
aI316
aI2
aI0
aI2
aaa(lp5621
(lp5622
g5620
aI912
aI3
aI0
aI3
aaa(lp5623
(lp5624
g5620
aI920
aI3
aI0
aI3
aaa(lp5625
(lp5626
g5620
aI1512
aI3
aI0
aI4
aaa(lp5627
(lp5628
g5620
aI1520
aI3
aI0
aI4
aaa(lp5629
(lp5630
g5620
aI2112
aI3
aI0
aI5
aaa(lp5631
(lp5632
g5620
aI2712
aI3
aI0
aI5
aaa(lp5633
(lp5634
g5620
aI3314
aI3
aI0
aI5
aaa(lp5635
(lp5636
g5620
aI3912
aI3
aI0
aI5
aaa(lp5637
(lp5638
g5620
aI4512
aI3
aI0
aI5
aaa(lp5639
(lp5640
g5620
aI5112
aI2
aI0
aI5
aaa(lp5641
(lp5642
g5620
aI5712
aI3
aI0
aI5
aaa(lp5643
(lp5644
g5620
aI6312
aI2
aI0
aI5
aaa(lp5645
(lp5646
g5620
aI6912
aI3
aI0
aI5
aaa(lp5647
(lp5648
g5620
aI7512
aI2
aI0
aI4
aaa(lp5649
(lp5650
g5620
aI8112
aI3
aI0
aI4
aaa(lp5651
(lp5652
g5620
aI8712
aI2
aI0
aI4
aaa(lp5653
(lp5654
g5620
aI9312
aI2
aI0
aI4
aaa(lp5655
(lp5656
g5620
aI9929
aI4
aI0
aI4
aaa(lp5657
(lp5658
g5620
aI10515
aI2
aI0
aI4
aaa(lp5659
(lp5660
g5620
aI11112
aI3
aI0
aI4
aaa(lp5661
(lp5662
g5620
aI11712
aI4
aI0
aI4
aaa(lp5663
(lp5664
g5620
aI12312
aI3
aI0
aI4
aaa(lp5665
(lp5666
g5620
aI12912
aI3
aI0
aI4
aaa(lp5667
(lp5668
S'4cxm83'
p5669
aI224
aI0
aI0
aI2
aaa(lp5670
(lp5671
g5669
aI824
aI0
aI0
aI3
aaa(lp5672
(lp5673
g5669
aI830
aI0
aI0
aI3
aaa(lp5674
(lp5675
g5669
aI1424
aI0
aI0
aI4
aaa(lp5676
(lp5677
g5669
aI1430
aI0
aI0
aI4
aaa(lp5678
(lp5679
g5669
aI2024
aI0
aI0
aI8
aaa(lp5680
(lp5681
g5669
aI2034
aI0
aI0
aI8
aaa(lp5682
(lp5683
g5669
aI2624
aI0
aI0
aI9
aaa(lp5684
(lp5685
g5669
aI2636
aI0
aI0
aI9
aaa(lp5686
(lp5687
g5669
aI3226
aI0
aI0
aI10
aaa(lp5688
(lp5689
g5669
aI3238
aI0
aI0
aI10
aaa(lp5690
(lp5691
g5669
aI3824
aI0
aI0
aI12
aaa(lp5692
(lp5693
g5669
aI3838
aI0
aI0
aI12
aaa(lp5694
(lp5695
g5669
aI4424
aI0
aI0
aI13
aaa(lp5696
(lp5697
g5669
aI4442
aI0
aI0
aI13
aaa(lp5698
(lp5699
g5669
aI5024
aI0
aI0
aI13
aaa(lp5700
(lp5701
g5669
aI5046
aI0
aI0
aI13
aaa(lp5702
(lp5703
g5669
aI5624
aI0
aI0
aI13
aaa(lp5704
(lp5705
g5669
aI5648
aI0
aI0
aI13
aaa(lp5706
(lp5707
g5669
aI6224
aI0
aI0
aI13
aaa(lp5708
(lp5709
g5669
aI6250
aI0
aI0
aI13
aaa(lp5710
(lp5711
g5669
aI6824
aI0
aI0
aI13
aaa(lp5712
(lp5713
g5669
aI6852
aI0
aI0
aI13
aaa(lp5714
(lp5715
g5669
aI7424
aI0
aI0
aI13
aaa(lp5716
(lp5717
g5669
aI7462
aI0
aI0
aI13
aaa(lp5718
(lp5719
g5669
aI8024
aI0
aI0
aI13
aaa(lp5720
(lp5721
g5669
aI8074
aI0
aI0
aI13
aaa(lp5722
(lp5723
g5669
aI8624
aI0
aI0
aI13
aaa(lp5724
(lp5725
g5669
aI8674
aI0
aI0
aI13
aaa(lp5726
(lp5727
g5669
aI9224
aI0
aI0
aI13
aaa(lp5728
(lp5729
g5669
aI9276
aI0
aI0
aI13
aaa(lp5730
(lp5731
g5669
aI9841
aI0
aI0
aI14
aaa(lp5732
(lp5733
g5669
aI9909
aI0
aI0
aI14
aaa(lp5734
(lp5735
g5669
aI10427
aI0
aI0
aI14
aaa(lp5736
(lp5737
g5669
aI10501
aI0
aI0
aI14
aaa(lp5738
(lp5739
g5669
aI11024
aI0
aI0
aI14
aaa(lp5740
(lp5741
g5669
aI11624
aI0
aI0
aI14
aaa(lp5742
(lp5743
g5669
aI12224
aI0
aI0
aI14
aaa(lp5744
(lp5745
g5669
aI12824
aI0
aI0
aI14
aaa(lp5746
(lp5747
S'4cxn83'
p5748
aI524
aI0
aI0
aI0
aaa(lp5749
(lp5750
g5748
aI1120
aI0
aI0
aI0
aaa(lp5751
(lp5752
g5748
aI1124
aI0
aI0
aI0
aaa(lp5753
(lp5754
g5748
aI1720
aI0
aI0
aI1
aaa(lp5755
(lp5756
g5748
aI1728
aI0
aI0
aI1
aaa(lp5757
(lp5758
g5748
aI2320
aI0
aI0
aI2
aaa(lp5759
(lp5760
g5748
aI2330
aI0
aI0
aI2
aaa(lp5761
(lp5762
g5748
aI2922
aI0
aI0
aI5
aaa(lp5763
(lp5764
g5748
aI2932
aI0
aI0
aI5
aaa(lp5765
(lp5766
g5748
aI3520
aI0
aI0
aI5
aaa(lp5767
(lp5768
g5748
aI3532
aI0
aI0
aI5
aaa(lp5769
(lp5770
g5748
aI4120
aI0
aI0
aI5
aaa(lp5771
(lp5772
g5748
aI4136
aI0
aI0
aI5
aaa(lp5773
(lp5774
g5748
aI4720
aI0
aI0
aI5
aaa(lp5775
(lp5776
g5748
aI4740
aI0
aI0
aI5
aaa(lp5777
(lp5778
g5748
aI5320
aI0
aI0
aI7
aaa(lp5779
(lp5780
g5748
aI5342
aI0
aI0
aI7
aaa(lp5781
(lp5782
g5748
aI5920
aI0
aI0
aI8
aaa(lp5783
(lp5784
g5748
aI5944
aI0
aI0
aI8
aaa(lp5785
(lp5786
g5748
aI6520
aI0
aI0
aI8
aaa(lp5787
(lp5788
g5748
aI6546
aI0
aI0
aI8
aaa(lp5789
(lp5790
g5748
aI7120
aI0
aI0
aI9
aaa(lp5791
(lp5792
g5748
aI7154
aI0
aI0
aI9
aaa(lp5793
(lp5794
g5748
aI7720
aI0
aI0
aI10
aaa(lp5795
(lp5796
g5748
aI7766
aI0
aI0
aI10
aaa(lp5797
(lp5798
g5748
aI8320
aI0
aI0
aI10
aaa(lp5799
(lp5800
g5748
aI8366
aI0
aI0
aI10
aaa(lp5801
(lp5802
g5748
aI8920
aI0
aI0
aI10
aaa(lp5803
(lp5804
g5748
aI8968
aI0
aI0
aI10
aaa(lp5805
(lp5806
g5748
aI9537
aI2
aI0
aI11
aaa(lp5807
(lp5808
g5748
aI9601
aI2
aI0
aI11
aaa(lp5809
(lp5810
g5748
aI10123
aI1
aI0
aI12
aaa(lp5811
(lp5812
g5748
aI10193
aI1
aI0
aI12
aaa(lp5813
(lp5814
g5748
aI10720
aI4
aI0
aI12
aaa(lp5815
(lp5816
g5748
aI10798
aI4
aI0
aI12
aaa(lp5817
(lp5818
g5748
aI11320
aI4
aI0
aI12
aaa(lp5819
(lp5820
g5748
aI11920
aI5
aI0
aI12
aaa(lp5821
(lp5822
g5748
aI12520
aI5
aI0
aI12
aaa(lp5823
(lp5824
S'4cxowu'
p5825
aI32
aI1
aI0
aI0
aaa(lp5826
(lp5827
g5825
aI632
aI0
aI0
aI10
aaa(lp5828
(lp5829
g5825
aI634
aI0
aI0
aI10
aaa(lp5830
(lp5831
g5825
aI1232
aI0
aI0
aI11
aaa(lp5832
(lp5833
g5825
aI1832
aI0
aI0
aI11
aaa(lp5834
(lp5835
g5825
aI2434
aI0
aI0
aI11
aaa(lp5836
(lp5837
g5825
aI3032
aI0
aI0
aI11
aaa(lp5838
(lp5839
g5825
aI3632
aI0
aI0
aI11
aaa(lp5840
(lp5841
g5825
aI4232
aI0
aI0
aI11
aaa(lp5842
(lp5843
g5825
aI4832
aI0
aI0
aI11
aaa(lp5844
(lp5845
g5825
aI5432
aI0
aI0
aI12
aaa(lp5846
(lp5847
g5825
aI6032
aI0
aI0
aI12
aaa(lp5848
(lp5849
g5825
aI6632
aI0
aI0
aI12
aaa(lp5850
(lp5851
g5825
aI7232
aI0
aI0
aI12
aaa(lp5852
(lp5853
g5825
aI7832
aI0
aI0
aI12
aaa(lp5854
(lp5855
g5825
aI8432
aI0
aI0
aI12
aaa(lp5856
(lp5857
g5825
aI9049
aI0
aI0
aI12
aaa(lp5858
(lp5859
g5825
aI9635
aI0
aI0
aI12
aaa(lp5860
(lp5861
g5825
aI10232
aI0
aI0
aI13
aaa(lp5862
(lp5863
g5825
aI10832
aI0
aI0
aI13
aaa(lp5864
(lp5865
g5825
aI11432
aI0
aI0
aI13
aaa(lp5866
(lp5867
g5825
aI12032
aI0
aI0
aI13
aaa(lp5868
(lp5869
S'4cxswh'
p5870
aI121
aI1
aI0
aI1
aaa(lp5871
(lp5872
g5870
aI717
aI1
aI0
aI2
aaa(lp5873
(lp5874
g5870
aI723
aI1
aI0
aI2
aaa(lp5875
(lp5876
g5870
aI1319
aI4
aI0
aI5
aaa(lp5877
(lp5878
g5870
aI1325
aI4
aI0
aI5
aaa(lp5879
(lp5880
g5870
aI1917
aI4
aI0
aI8
aaa(lp5881
(lp5882
g5870
aI1925
aI4
aI0
aI8
aaa(lp5883
(lp5884
g5870
aI2517
aI2
aI0
aI11
aaa(lp5885
(lp5886
g5870
aI2529
aI2
aI0
aI11
aaa(lp5887
(lp5888
g5870
aI3117
aI3
aI0
aI12
aaa(lp5889
(lp5890
g5870
aI3133
aI3
aI0
aI12
aaa(lp5891
(lp5892
g5870
aI3717
aI3
aI0
aI13
aaa(lp5893
(lp5894
g5870
aI3735
aI3
aI0
aI13
aaa(lp5895
(lp5896
g5870
aI4317
aI3
aI0
aI13
aaa(lp5897
(lp5898
g5870
aI4337
aI3
aI0
aI13
aaa(lp5899
(lp5900
g5870
aI4917
aI5
aI0
aI13
aaa(lp5901
(lp5902
g5870
aI4939
aI5
aI0
aI13
aaa(lp5903
(lp5904
g5870
aI5517
aI5
aI0
aI13
aaa(lp5905
(lp5906
g5870
aI5545
aI5
aI0
aI13
aaa(lp5907
(lp5908
g5870
aI6117
aI4
aI0
aI14
aaa(lp5909
(lp5910
g5870
aI6157
aI4
aI0
aI14
aaa(lp5911
(lp5912
g5870
aI6717
aI6
aI0
aI14
aaa(lp5913
(lp5914
g5870
aI6757
aI6
aI0
aI14
aaa(lp5915
(lp5916
g5870
aI7317
aI6
aI0
aI15
aaa(lp5917
(lp5918
g5870
aI7359
aI6
aI0
aI15
aaa(lp5919
(lp5920
g5870
aI7934
aI7
aI0
aI14
aaa(lp5921
(lp5922
g5870
aI7992
aI7
aI0
aI14
aaa(lp5923
(lp5924
g5870
aI8520
aI8
aI0
aI14
aaa(lp5925
(lp5926
g5870
aI8584
aI8
aI0
aI14
aaa(lp5927
(lp5928
g5870
aI9117
aI6
aI0
aI15
aaa(lp5929
(lp5930
g5870
aI9189
aI6
aI0
aI15
aaa(lp5931
(lp5932
g5870
aI9717
aI7
aI0
aI15
aaa(lp5933
(lp5934
g5870
aI9793
aI7
aI0
aI15
aaa(lp5935
(lp5936
g5870
aI10317
aI7
aI0
aI15
aaa(lp5937
(lp5938
g5870
aI10917
aI9
aI0
aI15
aaa(lp5939
(lp5940
S'4cxt4v'
p5941
aI59
aI1
aI0
aI0
aaa(lp5942
(lp5943
g5941
aI659
aI3
aI0
aI0
aaa(lp5944
(lp5945
g5941
aI663
aI3
aI0
aI0
aaa(lp5946
(lp5947
g5941
aI1261
aI4
aI0
aI2
aaa(lp5948
(lp5949
g5941
aI1265
aI4
aI0
aI2
aaa(lp5950
(lp5951
g5941
aI1859
aI6
aI0
aI2
aaa(lp5952
(lp5953
g5941
aI1865
aI6
aI0
aI2
aaa(lp5954
(lp5955
g5941
aI2459
aI4
aI0
aI3
aaa(lp5956
(lp5957
g5941
aI2469
aI4
aI0
aI3
aaa(lp5958
(lp5959
g5941
aI3059
aI6
aI0
aI3
aaa(lp5960
(lp5961
g5941
aI3073
aI6
aI0
aI3
aaa(lp5962
(lp5963
g5941
aI3659
aI7
aI0
aI3
aaa(lp5964
(lp5965
g5941
aI3675
aI7
aI0
aI3
aaa(lp5966
(lp5967
g5941
aI4259
aI8
aI0
aI4
aaa(lp5968
(lp5969
g5941
aI4277
aI8
aI0
aI4
aaa(lp5970
(lp5971
g5941
aI4859
aI7
aI0
aI4
aaa(lp5972
(lp5973
g5941
aI4879
aI7
aI0
aI4
aaa(lp5974
(lp5975
g5941
aI5459
aI9
aI0
aI6
aaa(lp5976
(lp5977
g5941
aI5485
aI9
aI0
aI6
aaa(lp5978
(lp5979
g5941
aI6059
aI10
aI0
aI6
aaa(lp5980
(lp5981
g5941
aI6095
aI10
aI0
aI6
aaa(lp5982
(lp5983
g5941
aI6659
aI9
aI0
aI6
aaa(lp5984
(lp5985
g5941
aI6695
aI9
aI0
aI6
aaa(lp5986
(lp5987
g5941
aI7259
aI10
aI0
aI6
aaa(lp5988
(lp5989
g5941
aI7297
aI10
aI0
aI6
aaa(lp5990
(lp5991
g5941
aI7876
aI9
aI0
aI6
aaa(lp5992
(lp5993
g5941
aI7930
aI9
aI0
aI6
aaa(lp5994
(lp5995
g5941
aI8462
aI9
aI0
aI6
aaa(lp5996
(lp5997
g5941
aI8522
aI9
aI0
aI6
aaa(lp5998
(lp5999
g5941
aI9059
aI10
aI0
aI6
aaa(lp6000
(lp6001
g5941
aI9127
aI10
aI0
aI6
aaa(lp6002
(lp6003
g5941
aI9659
aI11
aI0
aI6
aaa(lp6004
(lp6005
g5941
aI9731
aI11
aI0
aI6
aaa(lp6006
(lp6007
g5941
aI10259
aI11
aI0
aI7
aaa(lp6008
(lp6009
g5941
aI10859
aI12
aI0
aI7
aaa(lp6010
(lp6011
S'4cxutv'
p6012
aI181
aI1
aI0
aI1
aaa(lp6013
(lp6014
g6012
aI781
aI3
aI0
aI4
aaa(lp6015
(lp6016
g6012
aI783
aI3
aI0
aI4
aaa(lp6017
(lp6018
g6012
aI1379
aI3
aI0
aI4
aaa(lp6019
(lp6020
g6012
aI1383
aI3
aI0
aI4
aaa(lp6021
(lp6022
g6012
aI1979
aI2
aI0
aI5
aaa(lp6023
(lp6024
g6012
aI1987
aI2
aI0
aI5
aaa(lp6025
(lp6026
g6012
aI2579
aI2
aI0
aI6
aaa(lp6027
(lp6028
g6012
aI2591
aI2
aI0
aI6
aaa(lp6029
(lp6030
g6012
aI3179
aI4
aI0
aI7
aaa(lp6031
(lp6032
g6012
aI3193
aI4
aI0
aI7
aaa(lp6033
(lp6034
g6012
aI3779
aI7
aI0
aI7
aaa(lp6035
(lp6036
g6012
aI3795
aI7
aI0
aI7
aaa(lp6037
(lp6038
g6012
aI4379
aI9
aI0
aI7
aaa(lp6039
(lp6040
g6012
aI4397
aI9
aI0
aI7
aaa(lp6041
(lp6042
g6012
aI4979
aI14
aI0
aI7
aaa(lp6043
(lp6044
g6012
aI5003
aI14
aI0
aI7
aaa(lp6045
(lp6046
g6012
aI5579
aI14
aI0
aI7
aaa(lp6047
(lp6048
g6012
aI5611
aI14
aI0
aI7
aaa(lp6049
(lp6050
g6012
aI6179
aI14
aI0
aI9
aaa(lp6051
(lp6052
g6012
aI6211
aI14
aI0
aI9
aaa(lp6053
(lp6054
g6012
aI6779
aI18
aI0
aI10
aaa(lp6055
(lp6056
g6012
aI6813
aI18
aI0
aI10
aaa(lp6057
(lp6058
g6012
aI7396
aI23
aI0
aI10
aaa(lp6059
(lp6060
g6012
aI7446
aI23
aI0
aI10
aaa(lp6061
(lp6062
g6012
aI7982
aI27
aI0
aI10
aaa(lp6063
(lp6064
g6012
aI8038
aI27
aI0
aI10
aaa(lp6065
(lp6066
g6012
aI8579
aI28
aI0
aI11
aaa(lp6067
(lp6068
g6012
aI8643
aI28
aI0
aI11
aaa(lp6069
(lp6070
g6012
aI9179
aI31
aI0
aI11
aaa(lp6071
(lp6072
g6012
aI9248
aI31
aI0
aI11
aaa(lp6073
(lp6074
g6012
aI9779
aI37
aI0
aI12
aaa(lp6075
(lp6076
g6012
aI9868
aI37
aI0
aI12
aaa(lp6077
(lp6078
g6012
aI10379
aI41
aI0
aI12
aaa(lp6079
(lp6080
S'4cxzib'
p6081
aI15
aI1
aI0
aI0
aaa(lp6082
(lp6083
g6081
aI613
aI2
aI0
aI10
aaa(lp6084
(lp6085
g6081
aI619
aI2
aI0
aI10
aaa(lp6086
(lp6087
g6081
aI1213
aI5
aI0
aI14
aaa(lp6088
(lp6089
g6081
aI1223
aI5
aI0
aI14
aaa(lp6090
(lp6091
g6081
aI1813
aI4
aI0
aI23
aaa(lp6092
(lp6093
g6081
aI1825
aI4
aI0
aI23
aaa(lp6094
(lp6095
g6081
aI2413
aI7
aI0
aI34
aaa(lp6096
(lp6097
g6081
aI2427
aI7
aI0
aI34
aaa(lp6098
(lp6099
g6081
aI3013
aI7
aI0
aI44
aaa(lp6100
(lp6101
g6081
aI3029
aI7
aI0
aI44
aaa(lp6102
(lp6103
g6081
aI3613
aI8
aI0
aI50
aaa(lp6104
(lp6105
g6081
aI3635
aI8
aI0
aI50
aaa(lp6106
(lp6107
g6081
aI4213
aI11
aI0
aI56
aaa(lp6108
(lp6109
g6081
aI4241
aI11
aI0
aI56
aaa(lp6110
(lp6111
g6081
aI4813
aI14
aI0
aI63
aaa(lp6112
(lp6113
g6081
aI4841
aI14
aI0
aI63
aaa(lp6114
(lp6115
g6081
aI5413
aI17
aI0
aI74
aaa(lp6116
(lp6117
g6081
aI5443
aI17
aI0
aI74
aaa(lp6118
(lp6119
g6081
aI6030
aI16
aI0
aI85
aaa(lp6120
(lp6121
g6081
aI6076
aI16
aI0
aI85
aaa(lp6122
(lp6123
g6081
aI6616
aI19
aI0
aI91
aaa(lp6124
(lp6125
g6081
aI6668
aI19
aI0
aI91
aaa(lp6126
(lp6127
g6081
aI7213
aI18
aI0
aI95
aaa(lp6128
(lp6129
g6081
aI7273
aI18
aI0
aI95
aaa(lp6130
(lp6131
g6081
aI7813
aI18
aI0
aI104
aaa(lp6132
(lp6133
g6081
aI7878
aI18
aI0
aI104
aaa(lp6134
(lp6135
g6081
aI8413
aI21
aI0
aI113
aaa(lp6136
(lp6137
g6081
aI8500
aI21
aI0
aI113
aaa(lp6138
(lp6139
g6081
aI9014
aI21
aI0
aI123
aaa(lp6140
(lp6141
S'4cy08l'
p6142
aI407
aI19
aI0
aI3
aaa(lp6143
(lp6144
g6142
aI1003
aI49
aI0
aI11
aaa(lp6145
(lp6146
g6142
aI1011
aI49
aI0
aI11
aaa(lp6147
(lp6148
g6142
aI1603
aI85
aI0
aI17
aaa(lp6149
(lp6150
g6142
aI1613
aI85
aI0
aI17
aaa(lp6151
(lp6152
g6142
aI2203
aI107
aI0
aI24
aaa(lp6153
(lp6154
g6142
aI2215
aI107
aI0
aI24
aaa(lp6155
(lp6156
g6142
aI2803
aI138
aI0
aI26
aaa(lp6157
(lp6158
g6142
aI2817
aI138
aI0
aI26
aaa(lp6159
(lp6160
g6142
aI3403
aI172
aI0
aI29
aaa(lp6161
(lp6162
g6142
aI3423
aI172
aI0
aI29
aaa(lp6163
(lp6164
g6142
aI4003
aI219
aI0
aI31
aaa(lp6165
(lp6166
g6142
aI4029
aI219
aI0
aI31
aaa(lp6167
(lp6168
g6142
aI4603
aI256
aI0
aI33
aaa(lp6169
(lp6170
g6142
aI4629
aI256
aI0
aI33
aaa(lp6171
(lp6172
g6142
aI5203
aI284
aI0
aI33
aaa(lp6173
(lp6174
g6142
aI5231
aI284
aI0
aI33
aaa(lp6175
(lp6176
g6142
aI5820
aI330
aI0
aI35
aaa(lp6177
(lp6178
g6142
aI5862
aI330
aI0
aI35
aaa(lp6179
(lp6180
g6142
aI6406
aI374
aI0
aI37
aaa(lp6181
(lp6182
g6142
aI6454
aI374
aI0
aI37
aaa(lp6183
(lp6184
g6142
aI7003
aI418
aI0
aI40
aaa(lp6185
(lp6186
g6142
aI7059
aI418
aI0
aI40
aaa(lp6187
(lp6188
g6142
aI7603
aI457
aI0
aI43
aaa(lp6189
(lp6190
g6142
aI7663
aI457
aI0
aI43
aaa(lp6191
(lp6192
g6142
aI8203
aI488
aI0
aI46
aaa(lp6193
(lp6194
g6142
aI8271
aI488
aI0
aI46
aaa(lp6195
(lp6196
g6142
aI8803
aI527
aI0
aI47
aaa(lp6197
(lp6198
S'4cy1ec'
p6199
aI51
aI1
aI0
aI0
aaa(lp6200
(lp6201
g6199
aI651
aI0
aI0
aI0
aaa(lp6202
(lp6203
g6199
aI657
aI0
aI0
aI0
aaa(lp6204
(lp6205
g6199
aI1251
aI0
aI0
aI0
aaa(lp6206
(lp6207
g6199
aI1259
aI0
aI0
aI0
aaa(lp6208
(lp6209
g6199
aI1851
aI0
aI0
aI0
aaa(lp6210
(lp6211
g6199
aI1861
aI0
aI0
aI0
aaa(lp6212
(lp6213
g6199
aI2451
aI0
aI0
aI0
aaa(lp6214
(lp6215
g6199
aI2463
aI0
aI0
aI0
aaa(lp6216
(lp6217
g6199
aI3051
aI0
aI0
aI0
aaa(lp6218
(lp6219
g6199
aI3069
aI0
aI0
aI0
aaa(lp6220
(lp6221
g6199
aI3651
aI0
aI0
aI0
aaa(lp6222
(lp6223
g6199
aI3675
aI0
aI0
aI0
aaa(lp6224
(lp6225
g6199
aI4251
aI0
aI0
aI0
aaa(lp6226
(lp6227
g6199
aI4275
aI0
aI0
aI0
aaa(lp6228
(lp6229
g6199
aI4851
aI0
aI0
aI0
aaa(lp6230
(lp6231
g6199
aI4877
aI0
aI0
aI0
aaa(lp6232
(lp6233
g6199
aI5468
aI1
aI0
aI0
aaa(lp6234
(lp6235
g6199
aI5506
aI1
aI0
aI0
aaa(lp6236
(lp6237
g6199
aI6054
aI1
aI0
aI0
aaa(lp6238
(lp6239
g6199
aI6098
aI1
aI0
aI0
aaa(lp6240
(lp6241
g6199
aI6651
aI0
aI0
aI0
aaa(lp6242
(lp6243
g6199
aI6703
aI0
aI0
aI0
aaa(lp6244
(lp6245
g6199
aI7251
aI0
aI0
aI0
aaa(lp6246
(lp6247
g6199
aI7307
aI0
aI0
aI0
aaa(lp6248
(lp6249
g6199
aI7851
aI2
aI0
aI0
aaa(lp6250
(lp6251
g6199
aI7915
aI2
aI0
aI0
aaa(lp6252
(lp6253
g6199
aI8451
aI0
aI0
aI0
aaa(lp6254
(lp6255
S'4cy24r'
p6256
aI447
aI0
aI0
aI0
aaa(lp6257
(lp6258
g6256
aI1043
aI0
aI0
aI0
aaa(lp6259
(lp6260
g6256
aI1049
aI0
aI0
aI0
aaa(lp6261
(lp6262
g6256
aI1643
aI0
aI0
aI0
aaa(lp6263
(lp6264
g6256
aI1651
aI0
aI0
aI0
aaa(lp6265
(lp6266
g6256
aI2243
aI0
aI0
aI1
aaa(lp6267
(lp6268
g6256
aI2253
aI0
aI0
aI1
aaa(lp6269
(lp6270
g6256
aI2843
aI0
aI0
aI1
aaa(lp6271
(lp6272
g6256
aI2859
aI0
aI0
aI1
aaa(lp6273
(lp6274
g6256
aI3443
aI0
aI0
aI1
aaa(lp6275
(lp6276
g6256
aI3465
aI0
aI0
aI1
aaa(lp6277
(lp6278
g6256
aI4043
aI0
aI0
aI1
aaa(lp6279
(lp6280
g6256
aI4065
aI0
aI0
aI1
aaa(lp6281
(lp6282
g6256
aI4643
aI0
aI0
aI1
aaa(lp6283
(lp6284
g6256
aI4667
aI0
aI0
aI1
aaa(lp6285
(lp6286
g6256
aI5260
aI2
aI0
aI1
aaa(lp6287
(lp6288
g6256
aI5294
aI2
aI0
aI1
aaa(lp6289
(lp6290
g6256
aI5846
aI0
aI0
aI1
aaa(lp6291
(lp6292
g6256
aI5886
aI0
aI0
aI1
aaa(lp6293
(lp6294
g6256
aI6443
aI2
aI0
aI1
aaa(lp6295
(lp6296
g6256
aI6491
aI2
aI0
aI1
aaa(lp6297
(lp6298
g6256
aI7043
aI0
aI0
aI1
aaa(lp6299
(lp6300
g6256
aI7095
aI0
aI0
aI1
aaa(lp6301
(lp6302
g6256
aI7643
aI2
aI0
aI1
aaa(lp6303
(lp6304
g6256
aI7703
aI2
aI0
aI1
aaa(lp6305
(lp6306
g6256
aI8243
aI1
aI0
aI1
aaa(lp6307
(lp6308
S'4cy32e'
p6309
aI149
aI1
aI0
aI0
aaa(lp6310
(lp6311
g6309
aI749
aI1
aI0
aI0
aaa(lp6312
(lp6313
g6309
aI1349
aI1
aI0
aI0
aaa(lp6314
(lp6315
g6309
aI1949
aI1
aI0
aI0
aaa(lp6316
(lp6317
g6309
aI2549
aI1
aI0
aI0
aaa(lp6318
(lp6319
g6309
aI3149
aI1
aI0
aI0
aaa(lp6320
(lp6321
g6309
aI3749
aI1
aI0
aI0
aaa(lp6322
(lp6323
g6309
aI4349
aI1
aI0
aI0
aaa(lp6324
(lp6325
g6309
aI4966
aI1
aI0
aI0
aaa(lp6326
(lp6327
g6309
aI5552
aI2
aI0
aI0
aaa(lp6328
(lp6329
g6309
aI6149
aI2
aI0
aI0
aaa(lp6330
(lp6331
g6309
aI6749
aI2
aI0
aI0
aaa(lp6332
(lp6333
g6309
aI7349
aI2
aI0
aI0
aaa(lp6334
(lp6335
g6309
aI7949
aI2
aI0
aI0
aaa(lp6336
(lp6337
S'4cy5im'
p6338
aI13
aI1
aI0
aI0
aaa(lp6339
(lp6340
g6338
aI611
aI0
aI0
aI1
aaa(lp6341
(lp6342
g6338
aI615
aI0
aI0
aI1
aaa(lp6343
(lp6344
g6338
aI1211
aI0
aI0
aI1
aaa(lp6345
(lp6346
g6338
aI1811
aI0
aI0
aI1
aaa(lp6347
(lp6348
g6338
aI2411
aI0
aI0
aI1
aaa(lp6349
(lp6350
g6338
aI3011
aI0
aI0
aI1
aaa(lp6351
(lp6352
g6338
aI3611
aI0
aI0
aI1
aaa(lp6353
(lp6354
g6338
aI4228
aI0
aI0
aI1
aaa(lp6355
(lp6356
g6338
aI4814
aI0
aI0
aI1
aaa(lp6357
(lp6358
g6338
aI5411
aI0
aI0
aI1
aaa(lp6359
(lp6360
g6338
aI6011
aI0
aI0
aI1
aaa(lp6361
(lp6362
g6338
aI6611
aI0
aI0
aI1
aaa(lp6363
(lp6364
g6338
aI7211
aI0
aI0
aI1
aaa(lp6365
(lp6366
S'4cy5px'
p6367
aI554
aI0
aI0
aI1
aaa(lp6368
(lp6369
g6367
aI1152
aI0
aI0
aI2
aaa(lp6370
(lp6371
g6367
aI1156
aI0
aI0
aI2
aaa(lp6372
(lp6373
g6367
aI1752
aI0
aI0
aI3
aaa(lp6374
(lp6375
g6367
aI1762
aI0
aI0
aI3
aaa(lp6376
(lp6377
g6367
aI2352
aI0
aI0
aI3
aaa(lp6378
(lp6379
g6367
aI2368
aI0
aI0
aI3
aaa(lp6380
(lp6381
g6367
aI2952
aI0
aI0
aI3
aaa(lp6382
(lp6383
g6367
aI2968
aI0
aI0
aI3
aaa(lp6384
(lp6385
g6367
aI3552
aI0
aI0
aI3
aaa(lp6386
(lp6387
g6367
aI3570
aI0
aI0
aI3
aaa(lp6388
(lp6389
g6367
aI4169
aI0
aI0
aI3
aaa(lp6390
(lp6391
g6367
aI4195
aI0
aI0
aI3
aaa(lp6392
(lp6393
g6367
aI4755
aI0
aI0
aI3
aaa(lp6394
(lp6395
g6367
aI4787
aI0
aI0
aI3
aaa(lp6396
(lp6397
g6367
aI5352
aI0
aI0
aI3
aaa(lp6398
(lp6399
g6367
aI5392
aI0
aI0
aI3
aaa(lp6400
(lp6401
g6367
aI5952
aI0
aI0
aI3
aaa(lp6402
(lp6403
g6367
aI5996
aI0
aI0
aI3
aaa(lp6404
(lp6405
g6367
aI6552
aI0
aI0
aI3
aaa(lp6406
(lp6407
g6367
aI6604
aI0
aI0
aI3
aaa(lp6408
(lp6409
g6367
aI7152
aI0
aI0
aI3
aaa(lp6410
(lp6411
S'4cy884'
p6412
aI374
aI1
aI0
aI2
aaa(lp6413
(lp6414
g6412
aI972
aI3
aI0
aI2
aaa(lp6415
(lp6416
g6412
aI980
aI3
aI0
aI2
aaa(lp6417
(lp6418
g6412
aI1572
aI3
aI0
aI3
aaa(lp6419
(lp6420
g6412
aI1586
aI3
aI0
aI3
aaa(lp6421
(lp6422
g6412
aI2172
aI4
aI0
aI4
aaa(lp6423
(lp6424
g6412
aI2186
aI4
aI0
aI4
aaa(lp6425
(lp6426
g6412
aI2772
aI3
aI0
aI5
aaa(lp6427
(lp6428
g6412
aI2788
aI3
aI0
aI5
aaa(lp6429
(lp6430
g6412
aI3389
aI4
aI0
aI6
aaa(lp6431
(lp6432
g6412
aI3413
aI4
aI0
aI6
aaa(lp6433
(lp6434
g6412
aI3975
aI5
aI0
aI6
aaa(lp6435
(lp6436
g6412
aI4003
aI5
aI0
aI6
aaa(lp6437
(lp6438
g6412
aI4572
aI5
aI0
aI6
aaa(lp6439
(lp6440
g6412
aI4608
aI5
aI0
aI6
aaa(lp6441
(lp6442
g6412
aI5172
aI7
aI0
aI6
aaa(lp6443
(lp6444
g6412
aI5212
aI7
aI0
aI6
aaa(lp6445
(lp6446
g6412
aI5772
aI8
aI0
aI6
aaa(lp6447
(lp6448
g6412
aI5820
aI8
aI0
aI6
aaa(lp6449
(lp6450
g6412
aI6372
aI5
aI0
aI6
aaa(lp6451
(lp6452
S'4cy9w1'
p6453
aI460
aI2
aI0
aI0
aaa(lp6454
(lp6455
g6453
aI1054
aI1
aI0
aI0
aaa(lp6456
(lp6457
g6453
aI1066
aI1
aI0
aI0
aaa(lp6458
(lp6459
g6453
aI1654
aI0
aI0
aI0
aaa(lp6460
(lp6461
g6453
aI1666
aI0
aI0
aI0
aaa(lp6462
(lp6463
g6453
aI2254
aI0
aI0
aI1
aaa(lp6464
(lp6465
g6453
aI2268
aI0
aI0
aI1
aaa(lp6466
(lp6467
g6453
aI2871
aI0
aI0
aI1
aaa(lp6468
(lp6469
g6453
aI2893
aI0
aI0
aI1
aaa(lp6470
(lp6471
g6453
aI3457
aI0
aI0
aI1
aaa(lp6472
(lp6473
g6453
aI3483
aI0
aI0
aI1
aaa(lp6474
(lp6475
g6453
aI4054
aI0
aI0
aI1
aaa(lp6476
(lp6477
g6453
aI4086
aI0
aI0
aI1
aaa(lp6478
(lp6479
g6453
aI4654
aI0
aI0
aI1
aaa(lp6480
(lp6481
g6453
aI4690
aI0
aI0
aI1
aaa(lp6482
(lp6483
g6453
aI5254
aI0
aI0
aI1
aaa(lp6484
(lp6485
g6453
aI5298
aI0
aI0
aI1
aaa(lp6486
(lp6487
g6453
aI5854
aI0
aI0
aI1
aaa(lp6488
(lp6489
S'4cya0s'
p6490
aI413
aI2
aI0
aI1
aaa(lp6491
(lp6492
g6490
aI1011
aI2
aI0
aI2
aaa(lp6493
(lp6494
g6490
aI1021
aI2
aI0
aI2
aaa(lp6495
(lp6496
g6490
aI1611
aI3
aI0
aI2
aaa(lp6497
(lp6498
g6490
aI1621
aI3
aI0
aI2
aaa(lp6499
(lp6500
g6490
aI2211
aI5
aI0
aI2
aaa(lp6501
(lp6502
g6490
aI2223
aI5
aI0
aI2
aaa(lp6503
(lp6504
g6490
aI2828
aI5
aI0
aI2
aaa(lp6505
(lp6506
g6490
aI2848
aI5
aI0
aI2
aaa(lp6507
(lp6508
g6490
aI3414
aI7
aI0
aI2
aaa(lp6509
(lp6510
g6490
aI3438
aI7
aI0
aI2
aaa(lp6511
(lp6512
g6490
aI4011
aI7
aI0
aI2
aaa(lp6513
(lp6514
g6490
aI4039
aI7
aI0
aI2
aaa(lp6515
(lp6516
g6490
aI4611
aI8
aI0
aI3
aaa(lp6517
(lp6518
g6490
aI4643
aI8
aI0
aI3
aaa(lp6519
(lp6520
g6490
aI5211
aI8
aI0
aI4
aaa(lp6521
(lp6522
g6490
aI5251
aI8
aI0
aI4
aaa(lp6523
(lp6524
g6490
aI5811
aI8
aI0
aI4
aaa(lp6525
(lp6526
S'4cya42'
p6527
aI386
aI3
aI0
aI2
aaa(lp6528
(lp6529
g6527
aI988
aI1
aI0
aI6
aaa(lp6530
(lp6531
g6527
aI996
aI1
aI0
aI6
aaa(lp6532
(lp6533
g6527
aI1588
aI3
aI0
aI7
aaa(lp6534
(lp6535
g6527
aI1596
aI3
aI0
aI7
aaa(lp6536
(lp6537
g6527
aI2188
aI2
aI0
aI9
aaa(lp6538
(lp6539
g6527
aI2198
aI2
aI0
aI9
aaa(lp6540
(lp6541
g6527
aI2805
aI4
aI0
aI9
aaa(lp6542
(lp6543
g6527
aI2823
aI4
aI0
aI9
aaa(lp6544
(lp6545
g6527
aI3391
aI4
aI0
aI9
aaa(lp6546
(lp6547
g6527
aI3413
aI4
aI0
aI9
aaa(lp6548
(lp6549
g6527
aI3988
aI3
aI0
aI9
aaa(lp6550
(lp6551
g6527
aI4014
aI3
aI0
aI9
aaa(lp6552
(lp6553
g6527
aI4588
aI2
aI0
aI10
aaa(lp6554
(lp6555
g6527
aI4616
aI2
aI0
aI10
aaa(lp6556
(lp6557
g6527
aI5188
aI5
aI0
aI10
aaa(lp6558
(lp6559
g6527
aI5224
aI5
aI0
aI10
aaa(lp6560
(lp6561
g6527
aI5788
aI4
aI0
aI11
aaa(lp6562
(lp6563
S'4cyckm'
p6564
aI203
aI4
aI0
aI2
aaa(lp6565
(lp6566
g6564
aI797
aI25
aI0
aI11
aaa(lp6567
(lp6568
g6564
aI803
aI25
aI0
aI11
aaa(lp6569
(lp6570
g6564
aI1397
aI61
aI0
aI13
aaa(lp6571
(lp6572
g6564
aI1405
aI61
aI0
aI13
aaa(lp6573
(lp6574
g6564
aI2014
aI96
aI0
aI14
aaa(lp6575
(lp6576
g6564
aI2030
aI96
aI0
aI14
aaa(lp6577
(lp6578
g6564
aI2600
aI122
aI0
aI17
aaa(lp6579
(lp6580
g6564
aI2620
aI122
aI0
aI17
aaa(lp6581
(lp6582
g6564
aI3197
aI154
aI0
aI19
aaa(lp6583
(lp6584
g6564
aI3221
aI154
aI0
aI19
aaa(lp6585
(lp6586
g6564
aI3797
aI174
aI0
aI21
aaa(lp6587
(lp6588
g6564
aI3823
aI174
aI0
aI21
aaa(lp6589
(lp6590
g6564
aI4397
aI201
aI0
aI23
aaa(lp6591
(lp6592
g6564
aI4429
aI201
aI0
aI23
aaa(lp6593
(lp6594
g6564
aI4997
aI225
aI0
aI25
aaa(lp6595
(lp6596
S'4cycqf'
p6597
aI150
aI1
aI0
aI4
aaa(lp6598
(lp6599
g6597
aI748
aI3
aI0
aI8
aaa(lp6600
(lp6601
g6597
aI752
aI3
aI0
aI8
aaa(lp6602
(lp6603
g6597
aI1348
aI0
aI0
aI10
aaa(lp6604
(lp6605
g6597
aI1354
aI0
aI0
aI10
aaa(lp6606
(lp6607
g6597
aI1965
aI2
aI0
aI11
aaa(lp6608
(lp6609
g6597
aI1979
aI2
aI0
aI11
aaa(lp6610
(lp6611
g6597
aI2551
aI3
aI0
aI11
aaa(lp6612
(lp6613
g6597
aI2569
aI3
aI0
aI11
aaa(lp6614
(lp6615
g6597
aI3148
aI6
aI0
aI12
aaa(lp6616
(lp6617
g6597
aI3170
aI6
aI0
aI12
aaa(lp6618
(lp6619
g6597
aI3748
aI7
aI0
aI12
aaa(lp6620
(lp6621
g6597
aI3772
aI7
aI0
aI12
aaa(lp6622
(lp6623
g6597
aI4348
aI6
aI0
aI12
aaa(lp6624
(lp6625
g6597
aI4376
aI6
aI0
aI12
aaa(lp6626
(lp6627
g6597
aI4948
aI6
aI0
aI12
aaa(lp6628
(lp6629
S'4cycut'
p6630
aI106
aI2
aI0
aI1
aaa(lp6631
(lp6632
g6630
aI708
aI1
aI0
aI2
aaa(lp6633
(lp6634
g6630
aI710
aI1
aI0
aI2
aaa(lp6635
(lp6636
g6630
aI1308
aI1
aI0
aI3
aaa(lp6637
(lp6638
g6630
aI1312
aI1
aI0
aI3
aaa(lp6639
(lp6640
g6630
aI1925
aI1
aI0
aI11
aaa(lp6641
(lp6642
g6630
aI1937
aI1
aI0
aI11
aaa(lp6643
(lp6644
g6630
aI2511
aI2
aI0
aI13
aaa(lp6645
(lp6646
g6630
aI2527
aI2
aI0
aI13
aaa(lp6647
(lp6648
g6630
aI3108
aI3
aI0
aI14
aaa(lp6649
(lp6650
g6630
aI3128
aI3
aI0
aI14
aaa(lp6651
(lp6652
g6630
aI3708
aI3
aI0
aI15
aaa(lp6653
(lp6654
g6630
aI3730
aI3
aI0
aI15
aaa(lp6655
(lp6656
g6630
aI4308
aI1
aI0
aI19
aaa(lp6657
(lp6658
g6630
aI4334
aI1
aI0
aI19
aaa(lp6659
(lp6660
g6630
aI4908
aI2
aI0
aI21
aaa(lp6661
(lp6662
S'4cyflv'
p6663
aI410
aI7
aI0
aI3
aaa(lp6664
(lp6665
g6663
aI1025
aI14
aI0
aI6
aaa(lp6666
(lp6667
g6663
aI1035
aI14
aI0
aI6
aaa(lp6668
(lp6669
g6663
aI1611
aI20
aI0
aI6
aaa(lp6670
(lp6671
g6663
aI1625
aI20
aI0
aI6
aaa(lp6672
(lp6673
g6663
aI2208
aI23
aI0
aI6
aaa(lp6674
(lp6675
g6663
aI2226
aI23
aI0
aI6
aaa(lp6676
(lp6677
g6663
aI2808
aI28
aI0
aI6
aaa(lp6678
(lp6679
g6663
aI2828
aI28
aI0
aI6
aaa(lp6680
(lp6681
g6663
aI3408
aI31
aI0
aI6
aaa(lp6682
(lp6683
g6663
aI3432
aI31
aI0
aI6
aaa(lp6684
(lp6685
g6663
aI4008
aI34
aI0
aI7
aaa(lp6686
(lp6687
S'4cyhxa'
p6688
aI266
aI6
aI0
aI2
aaa(lp6689
(lp6690
g6688
aI844
aI13
aI0
aI7
aaa(lp6691
(lp6692
g6688
aI856
aI13
aI0
aI7
aaa(lp6693
(lp6694
g6688
aI1441
aI22
aI0
aI7
aaa(lp6695
(lp6696
g6688
aI1457
aI22
aI0
aI7
aaa(lp6697
(lp6698
g6688
aI2041
aI30
aI0
aI9
aaa(lp6699
(lp6700
g6688
aI2059
aI30
aI0
aI9
aaa(lp6701
(lp6702
g6688
aI2641
aI35
aI0
aI10
aaa(lp6703
(lp6704
g6688
aI2663
aI35
aI0
aI10
aaa(lp6705
(lp6706
g6688
aI3241
aI42
aI0
aI17
aaa(lp6707
(lp6708
S'4cyi0m'
p6709
aI235
aI1
aI0
aI2
aaa(lp6710
(lp6711
g6709
aI817
aI1
aI0
aI2
aaa(lp6712
(lp6713
g6709
aI827
aI1
aI0
aI2
aaa(lp6714
(lp6715
g6709
aI1414
aI4
aI0
aI5
aaa(lp6716
(lp6717
g6709
aI1428
aI4
aI0
aI5
aaa(lp6718
(lp6719
g6709
aI2014
aI5
aI0
aI7
aaa(lp6720
(lp6721
g6709
aI2030
aI5
aI0
aI7
aaa(lp6722
(lp6723
g6709
aI2614
aI3
aI0
aI9
aaa(lp6724
(lp6725
g6709
aI2634
aI3
aI0
aI9
aaa(lp6726
(lp6727
g6709
aI3214
aI3
aI0
aI9
aaa(lp6728
(lp6729
S'4cyiif'
p6730
aI84
aI0
aI0
aI2
aaa(lp6731
(lp6732
g6730
aI670
aI0
aI0
aI9
aaa(lp6733
(lp6734
g6730
aI678
aI0
aI0
aI9
aaa(lp6735
(lp6736
g6730
aI1267
aI0
aI0
aI10
aaa(lp6737
(lp6738
g6730
aI1279
aI0
aI0
aI10
aaa(lp6739
(lp6740
g6730
aI1867
aI0
aI0
aI11
aaa(lp6741
(lp6742
g6730
aI1881
aI0
aI0
aI11
aaa(lp6743
(lp6744
g6730
aI2467
aI0
aI0
aI12
aaa(lp6745
(lp6746
g6730
aI2485
aI0
aI0
aI12
aaa(lp6747
(lp6748
g6730
aI3067
aI0
aI0
aI12
aaa(lp6749
(lp6750
S'4cyima'
p6751
aI53
aI1
aI0
aI0
aaa(lp6752
(lp6753
g6751
aI643
aI2
aI0
aI1
aaa(lp6754
(lp6755
g6751
aI649
aI2
aI0
aI1
aaa(lp6756
(lp6757
g6751
aI1240
aI2
aI0
aI2
aaa(lp6758
(lp6759
g6751
aI1250
aI2
aI0
aI2
aaa(lp6760
(lp6761
g6751
aI1840
aI2
aI0
aI2
aaa(lp6762
(lp6763
g6751
aI1852
aI2
aI0
aI2
aaa(lp6764
(lp6765
g6751
aI2440
aI2
aI0
aI2
aaa(lp6766
(lp6767
g6751
aI2456
aI2
aI0
aI2
aaa(lp6768
(lp6769
g6751
aI3040
aI2
aI0
aI2
aaa(lp6770
(lp6771
S'4cyj1r'
p6772
aI515
aI6
aI0
aI2
aaa(lp6773
(lp6774
g6772
aI1108
aI8
aI0
aI2
aaa(lp6775
(lp6776
g6772
aI1116
aI8
aI0
aI2
aaa(lp6777
(lp6778
g6772
aI1708
aI15
aI0
aI3
aaa(lp6779
(lp6780
g6772
aI1718
aI15
aI0
aI3
aaa(lp6781
(lp6782
g6772
aI2308
aI17
aI0
aI3
aaa(lp6783
(lp6784
g6772
aI2322
aI17
aI0
aI3
aaa(lp6785
(lp6786
g6772
aI2908
aI20
aI0
aI5
aaa(lp6787
(lp6788
S'4cyjlk'
p6789
aI340
aI1
aI0
aI0
aaa(lp6790
(lp6791
g6789
aI937
aI2
aI0
aI9
aaa(lp6792
(lp6793
g6789
aI943
aI2
aI0
aI9
aaa(lp6794
(lp6795
g6789
aI1537
aI4
aI0
aI12
aaa(lp6796
(lp6797
g6789
aI1545
aI4
aI0
aI12
aaa(lp6798
(lp6799
g6789
aI2137
aI5
aI0
aI13
aaa(lp6800
(lp6801
g6789
aI2149
aI5
aI0
aI13
aaa(lp6802
(lp6803
g6789
aI2737
aI4
aI0
aI14
aaa(lp6804
(lp6805
S'4cykph'
p6806
aI567
aI5
aI0
aI5
aaa(lp6807
(lp6808
g6806
aI1163
aI9
aI0
aI10
aaa(lp6809
(lp6810
g6806
aI1169
aI9
aI0
aI10
aaa(lp6811
(lp6812
g6806
aI1763
aI16
aI0
aI14
aaa(lp6813
(lp6814
g6806
aI1773
aI16
aI0
aI14
aaa(lp6815
(lp6816
S'4cylw2'
p6817
aI159
aI2
aI0
aI0
aaa(lp6818
(lp6819
g6817
aI759
aI4
aI0
aI5
aaa(lp6820
(lp6821
g6817
aI763
aI4
aI0
aI5
aaa(lp6822
(lp6823
g6817
aI1359
aI4
aI0
aI15
aaa(lp6824
(lp6825
g6817
aI1367
aI4
aI0
aI15
aaa(lp6826
(lp6827
S'4cymqd'
p6828
aI486
aI4
aI0
aI1
aaa(lp6829
(lp6830
g6828
aI1084
aI9
aI0
aI3
aaa(lp6831
(lp6832
g6828
aI1090
aI9
aI0
aI3
aaa(lp6833
(lp6834
S'4cyp6p'
p6835
aI271
aI0
aI0
aI2
aaa(lp6836
(lp6837
S'4cypsv'
p6838
aI49
aI1
aI0
aI0
aaa.